ARM GAS  C:\Users\matte\AppData\Local\Temp\cczyq38t.s 			page 1


   1              		.cpu cortex-m7
   2              		.eabi_attribute 28, 1
   3              		.eabi_attribute 20, 1
   4              		.eabi_attribute 21, 1
   5              		.eabi_attribute 23, 3
   6              		.eabi_attribute 24, 1
   7              		.eabi_attribute 25, 1
   8              		.eabi_attribute 26, 1
   9              		.eabi_attribute 30, 2
  10              		.eabi_attribute 34, 1
  11              		.eabi_attribute 18, 4
  12              		.file	"main.cpp"
  13              		.text
  14              	.Ltext0:
  15              		.cfi_sections	.debug_frame
  16              		.section	.text._ZN5daisy9DaisySeedD2Ev,"axG",%progbits,_ZN5daisy9DaisySeedD5Ev,comdat
  17              		.align	1
  18              		.p2align 2,,3
  19              		.weak	_ZN5daisy9DaisySeedD2Ev
  20              		.arch armv7e-m
  21              		.syntax unified
  22              		.thumb
  23              		.thumb_func
  24              		.fpu fpv5-d16
  26              	_ZN5daisy9DaisySeedD2Ev:
  27              	.LVL0:
  28              	.LFB3274:
  29              		.file 1 "../../../libs/libDaisy/src/sys/../../../../libs/libDaisy/src/daisy_seed.h"
   1:../../../libs/libDaisy/src/sys/../../../../libs/libDaisy/src/daisy_seed.h **** #pragma once
   2:../../../libs/libDaisy/src/sys/../../../../libs/libDaisy/src/daisy_seed.h **** #ifndef DSY_SEED_H
   3:../../../libs/libDaisy/src/sys/../../../../libs/libDaisy/src/daisy_seed.h **** #define DSY_SEED_H
   4:../../../libs/libDaisy/src/sys/../../../../libs/libDaisy/src/daisy_seed.h **** 
   5:../../../libs/libDaisy/src/sys/../../../../libs/libDaisy/src/daisy_seed.h **** #include "daisy.h"
   6:../../../libs/libDaisy/src/sys/../../../../libs/libDaisy/src/daisy_seed.h **** 
   7:../../../libs/libDaisy/src/sys/../../../../libs/libDaisy/src/daisy_seed.h **** //Uncomment this out if you're still using the rev2 hardware
   8:../../../libs/libDaisy/src/sys/../../../../libs/libDaisy/src/daisy_seed.h **** //#define SEED_REV2
   9:../../../libs/libDaisy/src/sys/../../../../libs/libDaisy/src/daisy_seed.h **** 
  10:../../../libs/libDaisy/src/sys/../../../../libs/libDaisy/src/daisy_seed.h **** namespace daisy
  11:../../../libs/libDaisy/src/sys/../../../../libs/libDaisy/src/daisy_seed.h **** {
  12:../../../libs/libDaisy/src/sys/../../../../libs/libDaisy/src/daisy_seed.h **** /**
  13:../../../libs/libDaisy/src/sys/../../../../libs/libDaisy/src/daisy_seed.h ****    @brief This is the higher-level interface for the Daisy board. \n 
  14:../../../libs/libDaisy/src/sys/../../../../libs/libDaisy/src/daisy_seed.h ****     All basic peripheral configuration/initialization is setup here. \n
  15:../../../libs/libDaisy/src/sys/../../../../libs/libDaisy/src/daisy_seed.h **** 
  16:../../../libs/libDaisy/src/sys/../../../../libs/libDaisy/src/daisy_seed.h ****    @ingroup boards
  17:../../../libs/libDaisy/src/sys/../../../../libs/libDaisy/src/daisy_seed.h **** */
  18:../../../libs/libDaisy/src/sys/../../../../libs/libDaisy/src/daisy_seed.h **** class DaisySeed
  19:../../../libs/libDaisy/src/sys/../../../../libs/libDaisy/src/daisy_seed.h **** {
  20:../../../libs/libDaisy/src/sys/../../../../libs/libDaisy/src/daisy_seed.h ****   public:
  21:../../../libs/libDaisy/src/sys/../../../../libs/libDaisy/src/daisy_seed.h ****     DaisySeed() {}
  22:../../../libs/libDaisy/src/sys/../../../../libs/libDaisy/src/daisy_seed.h ****     ~DaisySeed() {}
  30              		.loc 1 22 5 view -0
  31              		.cfi_startproc
  32              		@ args = 0, pretend = 0, frame = 0
  33              		@ frame_needed = 0, uses_anonymous_args = 0
  34              		@ link register save eliminated.
  35              	.LBB197:
  36              	.LBI197:
ARM GAS  C:\Users\matte\AppData\Local\Temp\cczyq38t.s 			page 2


  37              		.file 2 "../../../libs/libDaisy/src/sys/../../../../libs/libDaisy/src/dev/codec_ak4556.h"
   1:../../../libs/libDaisy/src/sys/../../../../libs/libDaisy/src/dev/codec_ak4556.h **** #pragma once
   2:../../../libs/libDaisy/src/sys/../../../../libs/libDaisy/src/dev/codec_ak4556.h **** #ifndef DSY_CODEC_AK4556_H
   3:../../../libs/libDaisy/src/sys/../../../../libs/libDaisy/src/dev/codec_ak4556.h **** #define DSY_CODEC_AK4556_H
   4:../../../libs/libDaisy/src/sys/../../../../libs/libDaisy/src/dev/codec_ak4556.h **** 
   5:../../../libs/libDaisy/src/sys/../../../../libs/libDaisy/src/dev/codec_ak4556.h **** #include "daisy_core.h"
   6:../../../libs/libDaisy/src/sys/../../../../libs/libDaisy/src/dev/codec_ak4556.h **** #include "per/gpio.h"
   7:../../../libs/libDaisy/src/sys/../../../../libs/libDaisy/src/dev/codec_ak4556.h **** 
   8:../../../libs/libDaisy/src/sys/../../../../libs/libDaisy/src/dev/codec_ak4556.h **** namespace daisy
   9:../../../libs/libDaisy/src/sys/../../../../libs/libDaisy/src/dev/codec_ak4556.h **** {
  10:../../../libs/libDaisy/src/sys/../../../../libs/libDaisy/src/dev/codec_ak4556.h **** /** @brief Ak4556 Codec support 
  11:../../../libs/libDaisy/src/sys/../../../../libs/libDaisy/src/dev/codec_ak4556.h ****  ** @author shensley
  12:../../../libs/libDaisy/src/sys/../../../../libs/libDaisy/src/dev/codec_ak4556.h ****  ** @addtogroup codec
  13:../../../libs/libDaisy/src/sys/../../../../libs/libDaisy/src/dev/codec_ak4556.h ****  ** 
  14:../../../libs/libDaisy/src/sys/../../../../libs/libDaisy/src/dev/codec_ak4556.h ****  ** I don't see any real reason to have this be more than a function, but in case we want
  15:../../../libs/libDaisy/src/sys/../../../../libs/libDaisy/src/dev/codec_ak4556.h ****  ** to add other functions down the road I wrapped the function in a class.
  16:../../../libs/libDaisy/src/sys/../../../../libs/libDaisy/src/dev/codec_ak4556.h ****  ***/
  17:../../../libs/libDaisy/src/sys/../../../../libs/libDaisy/src/dev/codec_ak4556.h **** class Ak4556
  18:../../../libs/libDaisy/src/sys/../../../../libs/libDaisy/src/dev/codec_ak4556.h **** {
  19:../../../libs/libDaisy/src/sys/../../../../libs/libDaisy/src/dev/codec_ak4556.h ****   public:
  20:../../../libs/libDaisy/src/sys/../../../../libs/libDaisy/src/dev/codec_ak4556.h ****     Ak4556() {}
  21:../../../libs/libDaisy/src/sys/../../../../libs/libDaisy/src/dev/codec_ak4556.h ****     ~Ak4556() {}
  38              		.loc 2 21 5 view .LVU1
  39              		.loc 2 21 5 is_stmt 0 view .LVU2
  40              	.LBE197:
  41              	.LBB198:
  42              	.LBI198:
  43              		.file 3 "../../../libs/libDaisy/src/sys/system.h"
   1:../../../libs/libDaisy/src/sys/system.h **** #ifndef DSY_SYSTEM_H
   2:../../../libs/libDaisy/src/sys/system.h **** #define DSY_SYSTEM_H
   3:../../../libs/libDaisy/src/sys/system.h **** 
   4:../../../libs/libDaisy/src/sys/system.h **** #ifndef UNIT_TEST // for unit tests, a dummy implementation is provided below
   5:../../../libs/libDaisy/src/sys/system.h **** 
   6:../../../libs/libDaisy/src/sys/system.h **** #include <cstdint>
   7:../../../libs/libDaisy/src/sys/system.h **** #include "per/tim.h"
   8:../../../libs/libDaisy/src/sys/system.h **** 
   9:../../../libs/libDaisy/src/sys/system.h **** namespace daisy
  10:../../../libs/libDaisy/src/sys/system.h **** {
  11:../../../libs/libDaisy/src/sys/system.h **** /** A handle for interacting with the Core System.
  12:../../../libs/libDaisy/src/sys/system.h ****  ** This includes the Clock tree, MPU, global DMA initialization,
  13:../../../libs/libDaisy/src/sys/system.h ****  ** cache handling, and any other necessary global initiailzation
  14:../../../libs/libDaisy/src/sys/system.h ****  **
  15:../../../libs/libDaisy/src/sys/system.h ****  ** @author shensley
  16:../../../libs/libDaisy/src/sys/system.h ****  ** @ingroup system
  17:../../../libs/libDaisy/src/sys/system.h ****  */
  18:../../../libs/libDaisy/src/sys/system.h **** class System
  19:../../../libs/libDaisy/src/sys/system.h **** {
  20:../../../libs/libDaisy/src/sys/system.h ****   public:
  21:../../../libs/libDaisy/src/sys/system.h ****     /** Contains settings for initializing the System */
  22:../../../libs/libDaisy/src/sys/system.h ****     struct Config
  23:../../../libs/libDaisy/src/sys/system.h ****     {
  24:../../../libs/libDaisy/src/sys/system.h ****         /** Specifies the system clock frequency that feeds APB/AHB clocks, etc. */
  25:../../../libs/libDaisy/src/sys/system.h ****         enum class SysClkFreq
  26:../../../libs/libDaisy/src/sys/system.h ****         {
  27:../../../libs/libDaisy/src/sys/system.h ****             FREQ_400MHZ,
  28:../../../libs/libDaisy/src/sys/system.h ****             FREQ_480MHZ,
  29:../../../libs/libDaisy/src/sys/system.h ****         };
ARM GAS  C:\Users\matte\AppData\Local\Temp\cczyq38t.s 			page 3


  30:../../../libs/libDaisy/src/sys/system.h **** 
  31:../../../libs/libDaisy/src/sys/system.h ****         /** Method to call on the struct to set to defaults
  32:../../../libs/libDaisy/src/sys/system.h ****          ** CPU Freq set to 400MHz
  33:../../../libs/libDaisy/src/sys/system.h ****          ** Cache Enabled
  34:../../../libs/libDaisy/src/sys/system.h ****          ** */
  35:../../../libs/libDaisy/src/sys/system.h ****         void Defaults()
  36:../../../libs/libDaisy/src/sys/system.h ****         {
  37:../../../libs/libDaisy/src/sys/system.h ****             cpu_freq    = SysClkFreq::FREQ_400MHZ;
  38:../../../libs/libDaisy/src/sys/system.h ****             use_dcache  = true;
  39:../../../libs/libDaisy/src/sys/system.h ****             use_icache  = true;
  40:../../../libs/libDaisy/src/sys/system.h ****             skip_clocks = false;
  41:../../../libs/libDaisy/src/sys/system.h ****         }
  42:../../../libs/libDaisy/src/sys/system.h **** 
  43:../../../libs/libDaisy/src/sys/system.h ****         /** Method to call on the struct to set to boost mode:
  44:../../../libs/libDaisy/src/sys/system.h ****          ** CPU Freq set to 480MHz
  45:../../../libs/libDaisy/src/sys/system.h ****          ** Cache Enabled
  46:../../../libs/libDaisy/src/sys/system.h ****          ** */
  47:../../../libs/libDaisy/src/sys/system.h ****         void Boost()
  48:../../../libs/libDaisy/src/sys/system.h ****         {
  49:../../../libs/libDaisy/src/sys/system.h ****             cpu_freq    = SysClkFreq::FREQ_480MHZ;
  50:../../../libs/libDaisy/src/sys/system.h ****             use_dcache  = true;
  51:../../../libs/libDaisy/src/sys/system.h ****             use_icache  = true;
  52:../../../libs/libDaisy/src/sys/system.h ****             skip_clocks = false;
  53:../../../libs/libDaisy/src/sys/system.h ****         }
  54:../../../libs/libDaisy/src/sys/system.h **** 
  55:../../../libs/libDaisy/src/sys/system.h ****         SysClkFreq cpu_freq;
  56:../../../libs/libDaisy/src/sys/system.h ****         bool       use_dcache;
  57:../../../libs/libDaisy/src/sys/system.h ****         bool       use_icache;
  58:../../../libs/libDaisy/src/sys/system.h ****         bool       skip_clocks;
  59:../../../libs/libDaisy/src/sys/system.h ****     };
  60:../../../libs/libDaisy/src/sys/system.h **** 
  61:../../../libs/libDaisy/src/sys/system.h ****     /** Describes the different regions of memory available to the Daisy */
  62:../../../libs/libDaisy/src/sys/system.h ****     enum MemoryRegion
  63:../../../libs/libDaisy/src/sys/system.h ****     {
  64:../../../libs/libDaisy/src/sys/system.h ****         INTERNAL_FLASH = 0,
  65:../../../libs/libDaisy/src/sys/system.h ****         ITCMRAM,
  66:../../../libs/libDaisy/src/sys/system.h ****         DTCMRAM,
  67:../../../libs/libDaisy/src/sys/system.h ****         SRAM_D1,
  68:../../../libs/libDaisy/src/sys/system.h ****         SRAM_D2,
  69:../../../libs/libDaisy/src/sys/system.h ****         SRAM_D3,
  70:../../../libs/libDaisy/src/sys/system.h ****         SDRAM,
  71:../../../libs/libDaisy/src/sys/system.h ****         QSPI,
  72:../../../libs/libDaisy/src/sys/system.h ****         INVALID_ADDRESS,
  73:../../../libs/libDaisy/src/sys/system.h ****     };
  74:../../../libs/libDaisy/src/sys/system.h **** 
  75:../../../libs/libDaisy/src/sys/system.h ****     /** Bootloader struct for controlling bootloading parameters */
  76:../../../libs/libDaisy/src/sys/system.h ****     struct BootInfo
  77:../../../libs/libDaisy/src/sys/system.h ****     {
  78:../../../libs/libDaisy/src/sys/system.h ****         enum class Type : uint32_t
  79:../../../libs/libDaisy/src/sys/system.h ****         {
  80:../../../libs/libDaisy/src/sys/system.h ****             INVALID      = 0x00000000,
  81:../../../libs/libDaisy/src/sys/system.h ****             JUMP         = 0xDEADBEEF,
  82:../../../libs/libDaisy/src/sys/system.h ****             SKIP_TIMEOUT = 0x5AFEB007,
  83:../../../libs/libDaisy/src/sys/system.h ****             INF_TIMEOUT  = 0xB0074EFA,
  84:../../../libs/libDaisy/src/sys/system.h ****         } status;
  85:../../../libs/libDaisy/src/sys/system.h ****         uint32_t data;
  86:../../../libs/libDaisy/src/sys/system.h ****         enum class Version : uint32_t
ARM GAS  C:\Users\matte\AppData\Local\Temp\cczyq38t.s 			page 4


  87:../../../libs/libDaisy/src/sys/system.h ****         {
  88:../../../libs/libDaisy/src/sys/system.h ****             LT_v6_0 = 0, // Less than v6.0
  89:../../../libs/libDaisy/src/sys/system.h ****             NONE,        // No bootloader present
  90:../../../libs/libDaisy/src/sys/system.h ****             v6_0,        // v6.0
  91:../../../libs/libDaisy/src/sys/system.h ****             v6_1,        // v6.1 or greater
  92:../../../libs/libDaisy/src/sys/system.h ****             LAST
  93:../../../libs/libDaisy/src/sys/system.h ****         } version;
  94:../../../libs/libDaisy/src/sys/system.h ****     };
  95:../../../libs/libDaisy/src/sys/system.h **** 
  96:../../../libs/libDaisy/src/sys/system.h ****     System() {}
  97:../../../libs/libDaisy/src/sys/system.h ****     ~System() {}
  44              		.loc 3 97 5 is_stmt 1 view .LVU3
  45              		.loc 3 97 5 is_stmt 0 view .LVU4
  46              	.LBE198:
  47              	.LBB199:
  48              	.LBI199:
  49              		.file 4 "../../../libs/libDaisy/src/hid/usb.h"
   1:../../../libs/libDaisy/src/hid/usb.h **** #pragma once
   2:../../../libs/libDaisy/src/hid/usb.h **** #ifndef DSY_HID_USB_H
   3:../../../libs/libDaisy/src/hid/usb.h **** #define DSY_HID_USB_H
   4:../../../libs/libDaisy/src/hid/usb.h **** #include <stdint.h>
   5:../../../libs/libDaisy/src/hid/usb.h **** #include <stdlib.h>
   6:../../../libs/libDaisy/src/hid/usb.h **** 
   7:../../../libs/libDaisy/src/hid/usb.h **** namespace daisy
   8:../../../libs/libDaisy/src/hid/usb.h **** /** @addtogroup human_interface
   9:../../../libs/libDaisy/src/hid/usb.h ****     @{
  10:../../../libs/libDaisy/src/hid/usb.h **** */
  11:../../../libs/libDaisy/src/hid/usb.h **** 
  12:../../../libs/libDaisy/src/hid/usb.h **** {
  13:../../../libs/libDaisy/src/hid/usb.h **** /** 
  14:../../../libs/libDaisy/src/hid/usb.h ****     @brief Interface for initializing and using the USB Peripherals on the daisy
  15:../../../libs/libDaisy/src/hid/usb.h ****     @author Stephen Hensley
  16:../../../libs/libDaisy/src/hid/usb.h ****     @date December 2019
  17:../../../libs/libDaisy/src/hid/usb.h **** */
  18:../../../libs/libDaisy/src/hid/usb.h **** class UsbHandle
  19:../../../libs/libDaisy/src/hid/usb.h **** {
  20:../../../libs/libDaisy/src/hid/usb.h ****   public:
  21:../../../libs/libDaisy/src/hid/usb.h ****     /** Return values for USBHandle Functions */
  22:../../../libs/libDaisy/src/hid/usb.h ****     enum class Result
  23:../../../libs/libDaisy/src/hid/usb.h ****     {
  24:../../../libs/libDaisy/src/hid/usb.h ****         OK,
  25:../../../libs/libDaisy/src/hid/usb.h ****         ERR,
  26:../../../libs/libDaisy/src/hid/usb.h ****     };
  27:../../../libs/libDaisy/src/hid/usb.h **** 
  28:../../../libs/libDaisy/src/hid/usb.h ****     /** Specified which of the two USB Peripherals to initialize. */
  29:../../../libs/libDaisy/src/hid/usb.h ****     enum UsbPeriph
  30:../../../libs/libDaisy/src/hid/usb.h ****     {
  31:../../../libs/libDaisy/src/hid/usb.h ****         FS_INTERNAL, /**< Internal pin */
  32:../../../libs/libDaisy/src/hid/usb.h ****         FS_EXTERNAL, /**< FS External D+ pin is Pin 38 (GPIO32). FS External D- pin is Pin 37 (GPIO
  33:../../../libs/libDaisy/src/hid/usb.h ****         FS_BOTH,     /**< Both */
  34:../../../libs/libDaisy/src/hid/usb.h ****     };
  35:../../../libs/libDaisy/src/hid/usb.h **** 
  36:../../../libs/libDaisy/src/hid/usb.h **** 
  37:../../../libs/libDaisy/src/hid/usb.h ****     /** Function called upon reception of a buffer */
  38:../../../libs/libDaisy/src/hid/usb.h ****     typedef void (*ReceiveCallback)(uint8_t* buff, uint32_t* len);
  39:../../../libs/libDaisy/src/hid/usb.h **** 
  40:../../../libs/libDaisy/src/hid/usb.h ****     UsbHandle() {}
ARM GAS  C:\Users\matte\AppData\Local\Temp\cczyq38t.s 			page 5


  41:../../../libs/libDaisy/src/hid/usb.h **** 
  42:../../../libs/libDaisy/src/hid/usb.h ****     ~UsbHandle() {}
  50              		.loc 4 42 5 is_stmt 1 view .LVU5
  51              		.loc 4 42 5 is_stmt 0 view .LVU6
  52              	.LBE199:
  53              	.LBB200:
  54              	.LBI200:
  55              		.file 5 "../../../libs/libDaisy/src/sys/../../../../libs/libDaisy/src/per/adc.h"
   1:../../../libs/libDaisy/src/sys/../../../../libs/libDaisy/src/per/adc.h **** #pragma once
   2:../../../libs/libDaisy/src/sys/../../../../libs/libDaisy/src/per/adc.h **** #ifndef DSY_ADC_H
   3:../../../libs/libDaisy/src/sys/../../../../libs/libDaisy/src/per/adc.h **** #define DSY_ADC_H /**< Macro */
   4:../../../libs/libDaisy/src/sys/../../../../libs/libDaisy/src/per/adc.h **** #include <stdint.h>
   5:../../../libs/libDaisy/src/sys/../../../../libs/libDaisy/src/per/adc.h **** #include <stdlib.h>
   6:../../../libs/libDaisy/src/sys/../../../../libs/libDaisy/src/per/adc.h **** #include "daisy_core.h"
   7:../../../libs/libDaisy/src/sys/../../../../libs/libDaisy/src/per/adc.h **** #include "per/gpio.h"
   8:../../../libs/libDaisy/src/sys/../../../../libs/libDaisy/src/per/adc.h **** 
   9:../../../libs/libDaisy/src/sys/../../../../libs/libDaisy/src/per/adc.h **** #define DSY_ADC_MAX_CHANNELS 16 /**< Maximum number of ADC channels */
  10:../../../libs/libDaisy/src/sys/../../../../libs/libDaisy/src/per/adc.h **** 
  11:../../../libs/libDaisy/src/sys/../../../../libs/libDaisy/src/per/adc.h **** namespace daisy
  12:../../../libs/libDaisy/src/sys/../../../../libs/libDaisy/src/per/adc.h **** {
  13:../../../libs/libDaisy/src/sys/../../../../libs/libDaisy/src/per/adc.h **** /** @addtogroup per_analog
  14:../../../libs/libDaisy/src/sys/../../../../libs/libDaisy/src/per/adc.h ****     @{
  15:../../../libs/libDaisy/src/sys/../../../../libs/libDaisy/src/per/adc.h **** */
  16:../../../libs/libDaisy/src/sys/../../../../libs/libDaisy/src/per/adc.h **** 
  17:../../../libs/libDaisy/src/sys/../../../../libs/libDaisy/src/per/adc.h **** /* While there may not be many configuration options here,
  18:../../../libs/libDaisy/src/sys/../../../../libs/libDaisy/src/per/adc.h **** using a struct like this allows us to add more configuration
  19:../../../libs/libDaisy/src/sys/../../../../libs/libDaisy/src/per/adc.h **** later without breaking existing functionality.
  20:../../../libs/libDaisy/src/sys/../../../../libs/libDaisy/src/per/adc.h **** */
  21:../../../libs/libDaisy/src/sys/../../../../libs/libDaisy/src/per/adc.h **** 
  22:../../../libs/libDaisy/src/sys/../../../../libs/libDaisy/src/per/adc.h **** /** @brief   Configuration Structure for an ADC Channel 
  23:../../../libs/libDaisy/src/sys/../../../../libs/libDaisy/src/per/adc.h ****  *  @details This can be used to configure a a single input, 
  24:../../../libs/libDaisy/src/sys/../../../../libs/libDaisy/src/per/adc.h ****  *           or a multiplexed input, allowing up to 8 inputs on 
  25:../../../libs/libDaisy/src/sys/../../../../libs/libDaisy/src/per/adc.h ****  *           one channel.
  26:../../../libs/libDaisy/src/sys/../../../../libs/libDaisy/src/per/adc.h ****  *  @note    Sharing data lines to multiple muxes _is_ possible, but
  27:../../../libs/libDaisy/src/sys/../../../../libs/libDaisy/src/per/adc.h ****  *           each channel sharing data lines must be set to the maximum
  28:../../../libs/libDaisy/src/sys/../../../../libs/libDaisy/src/per/adc.h ****  *           number of channels, even if some multiplexers have fewer
  29:../../../libs/libDaisy/src/sys/../../../../libs/libDaisy/src/per/adc.h ****  *           inputs connected.
  30:../../../libs/libDaisy/src/sys/../../../../libs/libDaisy/src/per/adc.h **** */
  31:../../../libs/libDaisy/src/sys/../../../../libs/libDaisy/src/per/adc.h **** struct AdcChannelConfig
  32:../../../libs/libDaisy/src/sys/../../../../libs/libDaisy/src/per/adc.h **** {
  33:../../../libs/libDaisy/src/sys/../../../../libs/libDaisy/src/per/adc.h ****     /** Which pin to use for multiplexing */
  34:../../../libs/libDaisy/src/sys/../../../../libs/libDaisy/src/per/adc.h ****     enum MuxPin
  35:../../../libs/libDaisy/src/sys/../../../../libs/libDaisy/src/per/adc.h ****     {
  36:../../../libs/libDaisy/src/sys/../../../../libs/libDaisy/src/per/adc.h ****         MUX_SEL_0,    /**< & */
  37:../../../libs/libDaisy/src/sys/../../../../libs/libDaisy/src/per/adc.h ****         MUX_SEL_1,    /**< & */
  38:../../../libs/libDaisy/src/sys/../../../../libs/libDaisy/src/per/adc.h ****         MUX_SEL_2,    /**< & */
  39:../../../libs/libDaisy/src/sys/../../../../libs/libDaisy/src/per/adc.h ****         MUX_SEL_LAST, /**< & */
  40:../../../libs/libDaisy/src/sys/../../../../libs/libDaisy/src/per/adc.h ****     };
  41:../../../libs/libDaisy/src/sys/../../../../libs/libDaisy/src/per/adc.h **** 
  42:../../../libs/libDaisy/src/sys/../../../../libs/libDaisy/src/per/adc.h ****     /** \brief per channel conversion speed added to fixed time based on bitdepth, etc. */
  43:../../../libs/libDaisy/src/sys/../../../../libs/libDaisy/src/per/adc.h ****     enum ConversionSpeed
  44:../../../libs/libDaisy/src/sys/../../../../libs/libDaisy/src/per/adc.h ****     {
  45:../../../libs/libDaisy/src/sys/../../../../libs/libDaisy/src/per/adc.h ****         SPEED_1CYCLES_5,
  46:../../../libs/libDaisy/src/sys/../../../../libs/libDaisy/src/per/adc.h ****         SPEED_2CYCLES_5,
  47:../../../libs/libDaisy/src/sys/../../../../libs/libDaisy/src/per/adc.h ****         SPEED_8CYCLES_5,
  48:../../../libs/libDaisy/src/sys/../../../../libs/libDaisy/src/per/adc.h ****         SPEED_16CYCLES_5,
  49:../../../libs/libDaisy/src/sys/../../../../libs/libDaisy/src/per/adc.h ****         SPEED_32CYCLES_5,
ARM GAS  C:\Users\matte\AppData\Local\Temp\cczyq38t.s 			page 6


  50:../../../libs/libDaisy/src/sys/../../../../libs/libDaisy/src/per/adc.h ****         SPEED_64CYCLES_5,
  51:../../../libs/libDaisy/src/sys/../../../../libs/libDaisy/src/per/adc.h ****         SPEED_387CYCLES_5,
  52:../../../libs/libDaisy/src/sys/../../../../libs/libDaisy/src/per/adc.h ****         SPEED_810CYCLES_5,
  53:../../../libs/libDaisy/src/sys/../../../../libs/libDaisy/src/per/adc.h ****     };
  54:../../../libs/libDaisy/src/sys/../../../../libs/libDaisy/src/per/adc.h **** 
  55:../../../libs/libDaisy/src/sys/../../../../libs/libDaisy/src/per/adc.h ****     /** Initializes a single ADC pin as an ADC. 
  56:../../../libs/libDaisy/src/sys/../../../../libs/libDaisy/src/per/adc.h ****     \param pin Pin to init.
  57:../../../libs/libDaisy/src/sys/../../../../libs/libDaisy/src/per/adc.h ****     \param speed conversion speed for this pin defaults to 8.5 cycles
  58:../../../libs/libDaisy/src/sys/../../../../libs/libDaisy/src/per/adc.h ****      */
  59:../../../libs/libDaisy/src/sys/../../../../libs/libDaisy/src/per/adc.h ****     void InitSingle(Pin pin, ConversionSpeed speed = SPEED_8CYCLES_5);
  60:../../../libs/libDaisy/src/sys/../../../../libs/libDaisy/src/per/adc.h **** 
  61:../../../libs/libDaisy/src/sys/../../../../libs/libDaisy/src/per/adc.h ****     /** 
  62:../../../libs/libDaisy/src/sys/../../../../libs/libDaisy/src/per/adc.h ****     Initializes a single ADC pin as a Multiplexed ADC.
  63:../../../libs/libDaisy/src/sys/../../../../libs/libDaisy/src/per/adc.h ****     Requires a CD405X Multiplexer connected to the pin.
  64:../../../libs/libDaisy/src/sys/../../../../libs/libDaisy/src/per/adc.h ****     You only need to supply the mux pins that are required,
  65:../../../libs/libDaisy/src/sys/../../../../libs/libDaisy/src/per/adc.h ****     e.g. a 4052 mux would only require mux_0 and mux_1.
  66:../../../libs/libDaisy/src/sys/../../../../libs/libDaisy/src/per/adc.h ****     Internal Callbacks handle the pin addressing.
  67:../../../libs/libDaisy/src/sys/../../../../libs/libDaisy/src/per/adc.h ****     \param adc_pin &
  68:../../../libs/libDaisy/src/sys/../../../../libs/libDaisy/src/per/adc.h ****     \param mux_channels must be 1-8
  69:../../../libs/libDaisy/src/sys/../../../../libs/libDaisy/src/per/adc.h ****     \param mux_0 First mux pin
  70:../../../libs/libDaisy/src/sys/../../../../libs/libDaisy/src/per/adc.h ****     \param mux_1 Second mux pin
  71:../../../libs/libDaisy/src/sys/../../../../libs/libDaisy/src/per/adc.h ****     \param mux_2 Third mux pin
  72:../../../libs/libDaisy/src/sys/../../../../libs/libDaisy/src/per/adc.h ****     \param speed conversion speed for this pin defaults to 8.5 cycles
  73:../../../libs/libDaisy/src/sys/../../../../libs/libDaisy/src/per/adc.h ****     */
  74:../../../libs/libDaisy/src/sys/../../../../libs/libDaisy/src/per/adc.h ****     void InitMux(Pin             adc_pin,
  75:../../../libs/libDaisy/src/sys/../../../../libs/libDaisy/src/per/adc.h ****                  size_t          mux_channels,
  76:../../../libs/libDaisy/src/sys/../../../../libs/libDaisy/src/per/adc.h ****                  Pin             mux_0,
  77:../../../libs/libDaisy/src/sys/../../../../libs/libDaisy/src/per/adc.h ****                  Pin             mux_1 = Pin(PORTX, 0),
  78:../../../libs/libDaisy/src/sys/../../../../libs/libDaisy/src/per/adc.h ****                  Pin             mux_2 = Pin(PORTX, 0),
  79:../../../libs/libDaisy/src/sys/../../../../libs/libDaisy/src/per/adc.h ****                  ConversionSpeed speed = SPEED_8CYCLES_5);
  80:../../../libs/libDaisy/src/sys/../../../../libs/libDaisy/src/per/adc.h **** 
  81:../../../libs/libDaisy/src/sys/../../../../libs/libDaisy/src/per/adc.h ****     GPIO            pin_;                   /**< & */
  82:../../../libs/libDaisy/src/sys/../../../../libs/libDaisy/src/per/adc.h ****     GPIO            mux_pin_[MUX_SEL_LAST]; /**< & */
  83:../../../libs/libDaisy/src/sys/../../../../libs/libDaisy/src/per/adc.h ****     uint8_t         mux_channels_;          /**< & */
  84:../../../libs/libDaisy/src/sys/../../../../libs/libDaisy/src/per/adc.h ****     ConversionSpeed speed_;
  85:../../../libs/libDaisy/src/sys/../../../../libs/libDaisy/src/per/adc.h **** };
  86:../../../libs/libDaisy/src/sys/../../../../libs/libDaisy/src/per/adc.h **** 
  87:../../../libs/libDaisy/src/sys/../../../../libs/libDaisy/src/per/adc.h **** /**
  88:../../../libs/libDaisy/src/sys/../../../../libs/libDaisy/src/per/adc.h ****    @brief Handler for analog to digital conversion
  89:../../../libs/libDaisy/src/sys/../../../../libs/libDaisy/src/per/adc.h **** */
  90:../../../libs/libDaisy/src/sys/../../../../libs/libDaisy/src/per/adc.h **** class AdcHandle
  91:../../../libs/libDaisy/src/sys/../../../../libs/libDaisy/src/per/adc.h **** {
  92:../../../libs/libDaisy/src/sys/../../../../libs/libDaisy/src/per/adc.h ****   public:
  93:../../../libs/libDaisy/src/sys/../../../../libs/libDaisy/src/per/adc.h ****     /** Supported oversampling amounts */
  94:../../../libs/libDaisy/src/sys/../../../../libs/libDaisy/src/per/adc.h ****     enum OverSampling
  95:../../../libs/libDaisy/src/sys/../../../../libs/libDaisy/src/per/adc.h ****     {
  96:../../../libs/libDaisy/src/sys/../../../../libs/libDaisy/src/per/adc.h ****         OVS_NONE, /**< & */
  97:../../../libs/libDaisy/src/sys/../../../../libs/libDaisy/src/per/adc.h ****         OVS_4,    /**< & */
  98:../../../libs/libDaisy/src/sys/../../../../libs/libDaisy/src/per/adc.h ****         OVS_8,    /**< & */
  99:../../../libs/libDaisy/src/sys/../../../../libs/libDaisy/src/per/adc.h ****         OVS_16,   /**< & */
 100:../../../libs/libDaisy/src/sys/../../../../libs/libDaisy/src/per/adc.h ****         OVS_32,   /**< & */
 101:../../../libs/libDaisy/src/sys/../../../../libs/libDaisy/src/per/adc.h ****         OVS_64,   /**< & */
 102:../../../libs/libDaisy/src/sys/../../../../libs/libDaisy/src/per/adc.h ****         OVS_128,  /**< & */
 103:../../../libs/libDaisy/src/sys/../../../../libs/libDaisy/src/per/adc.h ****         OVS_256,  /**< & */
 104:../../../libs/libDaisy/src/sys/../../../../libs/libDaisy/src/per/adc.h ****         OVS_512,  /**< & */
 105:../../../libs/libDaisy/src/sys/../../../../libs/libDaisy/src/per/adc.h ****         OVS_1024, /**< & */
 106:../../../libs/libDaisy/src/sys/../../../../libs/libDaisy/src/per/adc.h ****         OVS_LAST, /**< & */
ARM GAS  C:\Users\matte\AppData\Local\Temp\cczyq38t.s 			page 7


 107:../../../libs/libDaisy/src/sys/../../../../libs/libDaisy/src/per/adc.h ****     };
 108:../../../libs/libDaisy/src/sys/../../../../libs/libDaisy/src/per/adc.h **** 
 109:../../../libs/libDaisy/src/sys/../../../../libs/libDaisy/src/per/adc.h ****     AdcHandle() {}
 110:../../../libs/libDaisy/src/sys/../../../../libs/libDaisy/src/per/adc.h ****     ~AdcHandle() {}
  56              		.loc 5 110 5 is_stmt 1 view .LVU7
  57              		.loc 5 110 5 is_stmt 0 view .LVU8
  58              	.LBE200:
  59              	.LBB201:
  60              	.LBI201:
  61              		.file 6 "../../../libs/libDaisy/src/sys/../../../../libs/libDaisy/src/hid/audio.h"
   1:../../../libs/libDaisy/src/sys/../../../../libs/libDaisy/src/hid/audio.h **** #ifndef DSY_AUDIO_H
   2:../../../libs/libDaisy/src/sys/../../../../libs/libDaisy/src/hid/audio.h **** #define DSY_AUDIO_H /**< & */
   3:../../../libs/libDaisy/src/sys/../../../../libs/libDaisy/src/hid/audio.h **** 
   4:../../../libs/libDaisy/src/sys/../../../../libs/libDaisy/src/hid/audio.h **** #include "per/sai.h"
   5:../../../libs/libDaisy/src/sys/../../../../libs/libDaisy/src/hid/audio.h **** 
   6:../../../libs/libDaisy/src/sys/../../../../libs/libDaisy/src/hid/audio.h **** namespace daisy
   7:../../../libs/libDaisy/src/sys/../../../../libs/libDaisy/src/hid/audio.h **** {
   8:../../../libs/libDaisy/src/sys/../../../../libs/libDaisy/src/hid/audio.h **** /** @brief Audio Engine Handle
   9:../../../libs/libDaisy/src/sys/../../../../libs/libDaisy/src/hid/audio.h ****  *  @ingroup audio 
  10:../../../libs/libDaisy/src/sys/../../../../libs/libDaisy/src/hid/audio.h ****  *  @details This class allows for higher level access to an audio engine.
  11:../../../libs/libDaisy/src/sys/../../../../libs/libDaisy/src/hid/audio.h ****  *           If you're using a SOM like the DaisySeed or DaisyPatchSM (or any 
  12:../../../libs/libDaisy/src/sys/../../../../libs/libDaisy/src/hid/audio.h ****  *            board that includes one of those objects) then the intialization
  13:../../../libs/libDaisy/src/sys/../../../../libs/libDaisy/src/hid/audio.h ****  *            is already taken  care of.
  14:../../../libs/libDaisy/src/sys/../../../../libs/libDaisy/src/hid/audio.h ****  *           If you're setting up your own custom hardware, or need to make changes
  15:../../../libs/libDaisy/src/sys/../../../../libs/libDaisy/src/hid/audio.h ****  *           you will have to take the following steps:
  16:../../../libs/libDaisy/src/sys/../../../../libs/libDaisy/src/hid/audio.h ****  *             1. Create and Initialize an SaiHandle or two depending on your requirements
  17:../../../libs/libDaisy/src/sys/../../../../libs/libDaisy/src/hid/audio.h ****  *             2. Initialize the Audio Handle with the desired settings and the Initialized SaiHand
  18:../../../libs/libDaisy/src/sys/../../../../libs/libDaisy/src/hid/audio.h ****  *             3. If the connected codec requires special configuration or initialization, do so
  19:../../../libs/libDaisy/src/sys/../../../../libs/libDaisy/src/hid/audio.h ****  *             4. Write a callback method using either the AudioCallback or the InterleavingAudioCa
  20:../../../libs/libDaisy/src/sys/../../../../libs/libDaisy/src/hid/audio.h ****  *             5. Start the Audio using one of the StartAudio function
  21:../../../libs/libDaisy/src/sys/../../../../libs/libDaisy/src/hid/audio.h ****  */
  22:../../../libs/libDaisy/src/sys/../../../../libs/libDaisy/src/hid/audio.h **** class AudioHandle
  23:../../../libs/libDaisy/src/sys/../../../../libs/libDaisy/src/hid/audio.h **** {
  24:../../../libs/libDaisy/src/sys/../../../../libs/libDaisy/src/hid/audio.h ****   public:
  25:../../../libs/libDaisy/src/sys/../../../../libs/libDaisy/src/hid/audio.h ****     /** Manually configurable details about the Audio Engine */
  26:../../../libs/libDaisy/src/sys/../../../../libs/libDaisy/src/hid/audio.h ****     /** TODO: Figure out how to get samplerate in here. */
  27:../../../libs/libDaisy/src/sys/../../../../libs/libDaisy/src/hid/audio.h ****     struct Config
  28:../../../libs/libDaisy/src/sys/../../../../libs/libDaisy/src/hid/audio.h ****     {
  29:../../../libs/libDaisy/src/sys/../../../../libs/libDaisy/src/hid/audio.h ****         /** number of samples to process per callback */
  30:../../../libs/libDaisy/src/sys/../../../../libs/libDaisy/src/hid/audio.h ****         size_t blocksize = 48;
  31:../../../libs/libDaisy/src/sys/../../../../libs/libDaisy/src/hid/audio.h **** 
  32:../../../libs/libDaisy/src/sys/../../../../libs/libDaisy/src/hid/audio.h ****         /**< Sample rate of audio */
  33:../../../libs/libDaisy/src/sys/../../../../libs/libDaisy/src/hid/audio.h ****         SaiHandle::Config::SampleRate samplerate
  34:../../../libs/libDaisy/src/sys/../../../../libs/libDaisy/src/hid/audio.h ****             = SaiHandle::Config::SampleRate::SAI_48KHZ;
  35:../../../libs/libDaisy/src/sys/../../../../libs/libDaisy/src/hid/audio.h **** 
  36:../../../libs/libDaisy/src/sys/../../../../libs/libDaisy/src/hid/audio.h ****         /** factor for adjustment before and after callback for hardware that may have extra headro
  37:../../../libs/libDaisy/src/sys/../../../../libs/libDaisy/src/hid/audio.h ****         float postgain = 1.f;
  38:../../../libs/libDaisy/src/sys/../../../../libs/libDaisy/src/hid/audio.h **** 
  39:../../../libs/libDaisy/src/sys/../../../../libs/libDaisy/src/hid/audio.h ****         /** factor for additional one-sided compensation to audio path for hardware that may
  40:../../../libs/libDaisy/src/sys/../../../../libs/libDaisy/src/hid/audio.h ****          *  have unequal input/output ranges
  41:../../../libs/libDaisy/src/sys/../../../../libs/libDaisy/src/hid/audio.h ****          */
  42:../../../libs/libDaisy/src/sys/../../../../libs/libDaisy/src/hid/audio.h ****         float output_compensation = 1.f;
  43:../../../libs/libDaisy/src/sys/../../../../libs/libDaisy/src/hid/audio.h ****     };
  44:../../../libs/libDaisy/src/sys/../../../../libs/libDaisy/src/hid/audio.h **** 
  45:../../../libs/libDaisy/src/sys/../../../../libs/libDaisy/src/hid/audio.h ****     enum class Result
  46:../../../libs/libDaisy/src/sys/../../../../libs/libDaisy/src/hid/audio.h ****     {
  47:../../../libs/libDaisy/src/sys/../../../../libs/libDaisy/src/hid/audio.h ****         OK,
ARM GAS  C:\Users\matte\AppData\Local\Temp\cczyq38t.s 			page 8


  48:../../../libs/libDaisy/src/sys/../../../../libs/libDaisy/src/hid/audio.h ****         ERR,
  49:../../../libs/libDaisy/src/sys/../../../../libs/libDaisy/src/hid/audio.h ****     };
  50:../../../libs/libDaisy/src/sys/../../../../libs/libDaisy/src/hid/audio.h **** 
  51:../../../libs/libDaisy/src/sys/../../../../libs/libDaisy/src/hid/audio.h ****     /** Non-Interleaving input buffer
  52:../../../libs/libDaisy/src/sys/../../../../libs/libDaisy/src/hid/audio.h ****      * Buffer arranged by float[chn][sample] 
  53:../../../libs/libDaisy/src/sys/../../../../libs/libDaisy/src/hid/audio.h ****      * const so that the user can't modify the input
  54:../../../libs/libDaisy/src/sys/../../../../libs/libDaisy/src/hid/audio.h ****      */
  55:../../../libs/libDaisy/src/sys/../../../../libs/libDaisy/src/hid/audio.h ****     typedef const float* const* InputBuffer;
  56:../../../libs/libDaisy/src/sys/../../../../libs/libDaisy/src/hid/audio.h **** 
  57:../../../libs/libDaisy/src/sys/../../../../libs/libDaisy/src/hid/audio.h ****     /** Non-Interleaving output buffer
  58:../../../libs/libDaisy/src/sys/../../../../libs/libDaisy/src/hid/audio.h ****      * Arranged by float[chn][sample] 
  59:../../../libs/libDaisy/src/sys/../../../../libs/libDaisy/src/hid/audio.h ****      */
  60:../../../libs/libDaisy/src/sys/../../../../libs/libDaisy/src/hid/audio.h ****     typedef float** OutputBuffer;
  61:../../../libs/libDaisy/src/sys/../../../../libs/libDaisy/src/hid/audio.h **** 
  62:../../../libs/libDaisy/src/sys/../../../../libs/libDaisy/src/hid/audio.h ****     /** Type for a Non-Interleaving audio callback 
  63:../../../libs/libDaisy/src/sys/../../../../libs/libDaisy/src/hid/audio.h ****      * Non-Interleaving audio callbacks in daisy will be of this type
  64:../../../libs/libDaisy/src/sys/../../../../libs/libDaisy/src/hid/audio.h ****      */
  65:../../../libs/libDaisy/src/sys/../../../../libs/libDaisy/src/hid/audio.h ****     typedef void (*AudioCallback)(InputBuffer  in,
  66:../../../libs/libDaisy/src/sys/../../../../libs/libDaisy/src/hid/audio.h ****                                   OutputBuffer out,
  67:../../../libs/libDaisy/src/sys/../../../../libs/libDaisy/src/hid/audio.h ****                                   size_t       size);
  68:../../../libs/libDaisy/src/sys/../../../../libs/libDaisy/src/hid/audio.h **** 
  69:../../../libs/libDaisy/src/sys/../../../../libs/libDaisy/src/hid/audio.h ****     /** Interleaving Input buffer
  70:../../../libs/libDaisy/src/sys/../../../../libs/libDaisy/src/hid/audio.h ****      ** audio is prepared as { L0, R0, L1, R1, . . . LN, RN }]
  71:../../../libs/libDaisy/src/sys/../../../../libs/libDaisy/src/hid/audio.h ****      ** this is const, as the user shouldn't modify it
  72:../../../libs/libDaisy/src/sys/../../../../libs/libDaisy/src/hid/audio.h ****     */
  73:../../../libs/libDaisy/src/sys/../../../../libs/libDaisy/src/hid/audio.h ****     typedef const float* InterleavingInputBuffer;
  74:../../../libs/libDaisy/src/sys/../../../../libs/libDaisy/src/hid/audio.h **** 
  75:../../../libs/libDaisy/src/sys/../../../../libs/libDaisy/src/hid/audio.h ****     /** Interleaving Output buffer 
  76:../../../libs/libDaisy/src/sys/../../../../libs/libDaisy/src/hid/audio.h ****      ** audio is prepared as { L0, R0, L1, R1, . . . LN, RN }
  77:../../../libs/libDaisy/src/sys/../../../../libs/libDaisy/src/hid/audio.h ****     */
  78:../../../libs/libDaisy/src/sys/../../../../libs/libDaisy/src/hid/audio.h ****     typedef float* InterleavingOutputBuffer;
  79:../../../libs/libDaisy/src/sys/../../../../libs/libDaisy/src/hid/audio.h **** 
  80:../../../libs/libDaisy/src/sys/../../../../libs/libDaisy/src/hid/audio.h ****     /** Interleaving Audio Callback 
  81:../../../libs/libDaisy/src/sys/../../../../libs/libDaisy/src/hid/audio.h ****      * Interleaving audio callbacks in daisy must be of this type
  82:../../../libs/libDaisy/src/sys/../../../../libs/libDaisy/src/hid/audio.h ****      */
  83:../../../libs/libDaisy/src/sys/../../../../libs/libDaisy/src/hid/audio.h ****     typedef void (*InterleavingAudioCallback)(InterleavingInputBuffer  in,
  84:../../../libs/libDaisy/src/sys/../../../../libs/libDaisy/src/hid/audio.h ****                                               InterleavingOutputBuffer out,
  85:../../../libs/libDaisy/src/sys/../../../../libs/libDaisy/src/hid/audio.h ****                                               size_t                   size);
  86:../../../libs/libDaisy/src/sys/../../../../libs/libDaisy/src/hid/audio.h **** 
  87:../../../libs/libDaisy/src/sys/../../../../libs/libDaisy/src/hid/audio.h ****     AudioHandle() : pimpl_(nullptr) {}
  88:../../../libs/libDaisy/src/sys/../../../../libs/libDaisy/src/hid/audio.h ****     ~AudioHandle() {}
  62              		.loc 6 88 5 is_stmt 1 view .LVU9
  63              		.loc 6 88 5 is_stmt 0 view .LVU10
  64              	.LBE201:
  65              		.loc 1 22 19 view .LVU11
  66 0000 7047     		bx	lr
  67              		.cfi_endproc
  68              	.LFE3274:
  70              		.weak	_ZN5daisy9DaisySeedD1Ev
  71              		.thumb_set _ZN5daisy9DaisySeedD1Ev,_ZN5daisy9DaisySeedD2Ev
  72 0002 00BF     		.section	.text._ZN7daisysp10OscillatorD2Ev,"axG",%progbits,_ZN7daisysp10OscillatorD5Ev,comdat
  73              		.align	1
  74              		.p2align 2,,3
  75              		.weak	_ZN7daisysp10OscillatorD2Ev
  76              		.syntax unified
  77              		.thumb
  78              		.thumb_func
ARM GAS  C:\Users\matte\AppData\Local\Temp\cczyq38t.s 			page 9


  79              		.fpu fpv5-d16
  81              	_ZN7daisysp10OscillatorD2Ev:
  82              	.LVL1:
  83              	.LFB4807:
  84              		.file 7 "../../../libs/DaisySP/Source/Synthesis/oscillator.h"
   1:../../../libs/DaisySP/Source/Synthesis/oscillator.h **** /*
   2:../../../libs/DaisySP/Source/Synthesis/oscillator.h **** Copyright (c) 2020 Electrosmith, Corp
   3:../../../libs/DaisySP/Source/Synthesis/oscillator.h **** 
   4:../../../libs/DaisySP/Source/Synthesis/oscillator.h **** Use of this source code is governed by an MIT-style
   5:../../../libs/DaisySP/Source/Synthesis/oscillator.h **** license that can be found in the LICENSE file or at
   6:../../../libs/DaisySP/Source/Synthesis/oscillator.h **** https://opensource.org/licenses/MIT.
   7:../../../libs/DaisySP/Source/Synthesis/oscillator.h **** */
   8:../../../libs/DaisySP/Source/Synthesis/oscillator.h **** 
   9:../../../libs/DaisySP/Source/Synthesis/oscillator.h **** #pragma once
  10:../../../libs/DaisySP/Source/Synthesis/oscillator.h **** #ifndef DSY_OSCILLATOR_H
  11:../../../libs/DaisySP/Source/Synthesis/oscillator.h **** #define DSY_OSCILLATOR_H
  12:../../../libs/DaisySP/Source/Synthesis/oscillator.h **** #include <stdint.h>
  13:../../../libs/DaisySP/Source/Synthesis/oscillator.h **** #include "Utility/dsp.h"
  14:../../../libs/DaisySP/Source/Synthesis/oscillator.h **** #ifdef __cplusplus
  15:../../../libs/DaisySP/Source/Synthesis/oscillator.h **** 
  16:../../../libs/DaisySP/Source/Synthesis/oscillator.h **** namespace daisysp
  17:../../../libs/DaisySP/Source/Synthesis/oscillator.h **** {
  18:../../../libs/DaisySP/Source/Synthesis/oscillator.h **** /** Synthesis of several waveforms, including polyBLEP bandlimited waveforms.
  19:../../../libs/DaisySP/Source/Synthesis/oscillator.h **** */
  20:../../../libs/DaisySP/Source/Synthesis/oscillator.h **** class Oscillator
  21:../../../libs/DaisySP/Source/Synthesis/oscillator.h **** {
  22:../../../libs/DaisySP/Source/Synthesis/oscillator.h ****   public:
  23:../../../libs/DaisySP/Source/Synthesis/oscillator.h ****     Oscillator() {}
  24:../../../libs/DaisySP/Source/Synthesis/oscillator.h ****     ~Oscillator() {}
  85              		.loc 7 24 5 is_stmt 1 view -0
  86              		.cfi_startproc
  87              		@ args = 0, pretend = 0, frame = 0
  88              		@ frame_needed = 0, uses_anonymous_args = 0
  89              		@ link register save eliminated.
  90              		.loc 7 24 20 is_stmt 0 view .LVU13
  91 0000 7047     		bx	lr
  92              		.cfi_endproc
  93              	.LFE4807:
  95              		.weak	_ZN7daisysp10OscillatorD1Ev
  96              		.thumb_set _ZN7daisysp10OscillatorD1Ev,_ZN7daisysp10OscillatorD2Ev
  97              		.section	.text._ZN7daisysp7TremoloD2Ev,"axG",%progbits,_ZN7daisysp7TremoloD5Ev,comdat
  98              		.align	1
  99              		.p2align 2,,3
 100              		.weak	_ZN7daisysp7TremoloD2Ev
 101              		.syntax unified
 102              		.thumb
 103              		.thumb_func
 104              		.fpu fpv5-d16
 106              	_ZN7daisysp7TremoloD2Ev:
 107              	.LVL2:
 108              	.LFB4999:
 109              		.file 8 "../../../libs/DaisySP/Source/Effects/tremolo.h"
   1:../../../libs/DaisySP/Source/Effects/tremolo.h **** /*
   2:../../../libs/DaisySP/Source/Effects/tremolo.h **** Copyright (c) 2020 Electrosmith, Corp
   3:../../../libs/DaisySP/Source/Effects/tremolo.h **** 
   4:../../../libs/DaisySP/Source/Effects/tremolo.h **** Use of this source code is governed by an MIT-style
   5:../../../libs/DaisySP/Source/Effects/tremolo.h **** license that can be found in the LICENSE file or at
ARM GAS  C:\Users\matte\AppData\Local\Temp\cczyq38t.s 			page 10


   6:../../../libs/DaisySP/Source/Effects/tremolo.h **** https://opensource.org/licenses/MIT.
   7:../../../libs/DaisySP/Source/Effects/tremolo.h **** */
   8:../../../libs/DaisySP/Source/Effects/tremolo.h **** 
   9:../../../libs/DaisySP/Source/Effects/tremolo.h **** #pragma once
  10:../../../libs/DaisySP/Source/Effects/tremolo.h **** #ifndef DSY_TREMOLO_H
  11:../../../libs/DaisySP/Source/Effects/tremolo.h **** #define DSY_TREMOLO_H
  12:../../../libs/DaisySP/Source/Effects/tremolo.h **** 
  13:../../../libs/DaisySP/Source/Effects/tremolo.h **** #include <stdint.h>
  14:../../../libs/DaisySP/Source/Effects/tremolo.h **** #ifdef __cplusplus
  15:../../../libs/DaisySP/Source/Effects/tremolo.h **** 
  16:../../../libs/DaisySP/Source/Effects/tremolo.h **** #include <math.h>
  17:../../../libs/DaisySP/Source/Effects/tremolo.h **** #include "Synthesis/oscillator.h"
  18:../../../libs/DaisySP/Source/Effects/tremolo.h **** 
  19:../../../libs/DaisySP/Source/Effects/tremolo.h **** /** @file tremolo.h */
  20:../../../libs/DaisySP/Source/Effects/tremolo.h **** 
  21:../../../libs/DaisySP/Source/Effects/tremolo.h **** namespace daisysp
  22:../../../libs/DaisySP/Source/Effects/tremolo.h **** {
  23:../../../libs/DaisySP/Source/Effects/tremolo.h **** /**  
  24:../../../libs/DaisySP/Source/Effects/tremolo.h ****     @brief Tremolo effect.
  25:../../../libs/DaisySP/Source/Effects/tremolo.h ****     @author Ben Sergentanis
  26:../../../libs/DaisySP/Source/Effects/tremolo.h ****     @date Jan 2021
  27:../../../libs/DaisySP/Source/Effects/tremolo.h ****     Based on https://christianfloisand.wordpress.com/2012/04/18/coding-some-tremolo/ \n
  28:../../../libs/DaisySP/Source/Effects/tremolo.h **** */
  29:../../../libs/DaisySP/Source/Effects/tremolo.h **** class Tremolo
  30:../../../libs/DaisySP/Source/Effects/tremolo.h **** {
  31:../../../libs/DaisySP/Source/Effects/tremolo.h ****   public:
  32:../../../libs/DaisySP/Source/Effects/tremolo.h ****     Tremolo() {}
  33:../../../libs/DaisySP/Source/Effects/tremolo.h ****     ~Tremolo() {}
 110              		.loc 8 33 5 is_stmt 1 view -0
 111              		.cfi_startproc
 112              		@ args = 0, pretend = 0, frame = 0
 113              		@ frame_needed = 0, uses_anonymous_args = 0
 114              		@ link register save eliminated.
 115              	.LBB202:
 116              	.LBI202:
 117              		.loc 7 24 5 view .LVU15
 118              		.loc 7 24 5 is_stmt 0 view .LVU16
 119              	.LBE202:
 120              		.loc 8 33 17 view .LVU17
 121 0000 7047     		bx	lr
 122              		.cfi_endproc
 123              	.LFE4999:
 125              		.weak	_ZN7daisysp7TremoloD1Ev
 126              		.thumb_set _ZN7daisysp7TremoloD1Ev,_ZN7daisysp7TremoloD2Ev
 127 0002 00BF     		.section	.text._Z13AudioCallbackPKPKfPPfj,"ax",%progbits
 128              		.align	1
 129              		.p2align 2,,3
 130              		.global	_Z13AudioCallbackPKPKfPPfj
 131              		.syntax unified
 132              		.thumb
 133              		.thumb_func
 134              		.fpu fpv5-d16
 136              	_Z13AudioCallbackPKPKfPPfj:
 137              	.LVL3:
 138              	.LFB5255:
 139              		.file 9 "src/main.cpp"
   1:src/main.cpp  **** // TO DO: 
ARM GAS  C:\Users\matte\AppData\Local\Temp\cczyq38t.s 			page 11


   2:src/main.cpp  **** //      - add const char with instantiation (e.g. name of param of set param)
   3:src/main.cpp  **** 
   4:src/main.cpp  **** #include "sigChain/sigChain_handler.hpp"
   5:src/main.cpp  **** #include "effect/effectWrapper.cpp"
   6:src/main.cpp  **** #include "display/displayHandler.hpp"
   7:src/main.cpp  **** #include "daisy_seed.h"
   8:src/main.cpp  **** #include "daisysp.h"
   9:src/main.cpp  **** 
  10:src/main.cpp  **** // #define DISPLAY
  11:src/main.cpp  **** 
  12:src/main.cpp  **** using namespace daisy;
  13:src/main.cpp  **** DaisySeed hw;
  14:src/main.cpp  **** float outSample;
  15:src/main.cpp  **** 
  16:src/main.cpp  **** /* SIGNAL CHAIN CREATION */
  17:src/main.cpp  **** // instantiation of the chain
  18:src/main.cpp  **** sigChain_handler chain1;
  19:src/main.cpp  **** 
  20:src/main.cpp  **** /* MAIN BLOCKS INSTANTIATION */
  21:src/main.cpp  **** // here the block of the signal chain are instantiated
  22:src/main.cpp  **** daisysp::Oscillator lfo1;
  23:src/main.cpp  **** 
  24:src/main.cpp  **** 
  25:src/main.cpp  **** daisysp::Tremolo trem1;
  26:src/main.cpp  **** 
  27:src/main.cpp  **** 
  28:src/main.cpp  **** #ifdef DISPLAY 
  29:src/main.cpp  **** MyOledDisplay realDisp;
  30:src/main.cpp  **** 
  31:src/main.cpp  **** // display handling
  32:src/main.cpp  **** DisplayHandler disp1 (&realDisp);
  33:src/main.cpp  **** #endif  // DISPLAY
  34:src/main.cpp  **** 
  35:src/main.cpp  **** void AudioCallback(AudioHandle::InputBuffer in, AudioHandle::OutputBuffer out, size_t size)
  36:src/main.cpp  **** {
 140              		.loc 9 36 1 is_stmt 1 view -0
 141              		.cfi_startproc
 142              		@ args = 0, pretend = 0, frame = 0
 143              		@ frame_needed = 0, uses_anonymous_args = 0
  37:src/main.cpp  **** 	for (size_t i = 0; i < size; i++)
 144              		.loc 9 37 2 view .LVU19
 145              	.LBB207:
 146              		.loc 9 37 23 view .LVU20
 147 0000 6AB3     		cbz	r2, .L17
 148              	.LBE207:
  36:src/main.cpp  **** 	for (size_t i = 0; i < size; i++)
 149              		.loc 9 36 1 is_stmt 0 view .LVU21
 150 0002 2DE9F047 		push	{r4, r5, r6, r7, r8, r9, r10, lr}
 151              		.cfi_def_cfa_offset 32
 152              		.cfi_offset 4, -32
 153              		.cfi_offset 5, -28
 154              		.cfi_offset 6, -24
 155              		.cfi_offset 7, -20
 156              		.cfi_offset 8, -16
 157              		.cfi_offset 9, -12
 158              		.cfi_offset 10, -8
 159              		.cfi_offset 14, -4
ARM GAS  C:\Users\matte\AppData\Local\Temp\cczyq38t.s 			page 12


 160 0006 0F46     		mov	r7, r1
 161 0008 9046     		mov	r8, r2
 162              	.LBB214:
 163              		.loc 9 37 14 view .LVU22
 164 000a 0026     		movs	r6, #0
 165 000c DFF858A0 		ldr	r10, .L20+8
 166 0010 DFF85890 		ldr	r9, .L20+12
 167              	.LVL4:
 168              	.L9:
 169              	.LBB208:
 170              	.LBB209:
 171              	.LBB210:
 172              		.file 10 "../../Classes/sigChain/sigChain_handler.hpp"
   1:../../Classes/sigChain/sigChain_handler.hpp **** // TODO:
   2:../../Classes/sigChain/sigChain_handler.hpp **** //      - divide implementation and declaration
   3:../../Classes/sigChain/sigChain_handler.hpp **** 
   4:../../Classes/sigChain/sigChain_handler.hpp **** #include "effectInterface.hpp"
   5:../../Classes/sigChain/sigChain_handler.hpp **** #define MAX_NUM_OF_BLOCKS 8 
   6:../../Classes/sigChain/sigChain_handler.hpp **** 
   7:../../Classes/sigChain/sigChain_handler.hpp **** /// @brief Handler of the signal chain
   8:../../Classes/sigChain/sigChain_handler.hpp **** class sigChain_handler {
   9:../../Classes/sigChain/sigChain_handler.hpp **** 
  10:../../Classes/sigChain/sigChain_handler.hpp **** private:
  11:../../Classes/sigChain/sigChain_handler.hpp ****     EffectInterface* _effects [MAX_NUM_OF_BLOCKS];
  12:../../Classes/sigChain/sigChain_handler.hpp ****     unsigned int _effectsCounter = 0;
  13:../../Classes/sigChain/sigChain_handler.hpp **** 
  14:../../Classes/sigChain/sigChain_handler.hpp **** public:
  15:../../Classes/sigChain/sigChain_handler.hpp ****     
  16:../../Classes/sigChain/sigChain_handler.hpp ****     /// @brief add effect to the signal chain
  17:../../Classes/sigChain/sigChain_handler.hpp ****     /// @param effect pointer to effect 
  18:../../Classes/sigChain/sigChain_handler.hpp ****     /// @return one if full
  19:../../Classes/sigChain/sigChain_handler.hpp ****     int addEffect (EffectInterface* effect){
  20:../../Classes/sigChain/sigChain_handler.hpp ****         int oneIfFull = 0;
  21:../../Classes/sigChain/sigChain_handler.hpp ****         if (_effectsCounter < MAX_NUM_OF_BLOCKS){
  22:../../Classes/sigChain/sigChain_handler.hpp ****              _effects[_effectsCounter] = effect;
  23:../../Classes/sigChain/sigChain_handler.hpp ****              _effectsCounter++;
  24:../../Classes/sigChain/sigChain_handler.hpp ****          } 
  25:../../Classes/sigChain/sigChain_handler.hpp ****          else {
  26:../../Classes/sigChain/sigChain_handler.hpp ****             oneIfFull = 1;
  27:../../Classes/sigChain/sigChain_handler.hpp ****          }
  28:../../Classes/sigChain/sigChain_handler.hpp ****         return oneIfFull;
  29:../../Classes/sigChain/sigChain_handler.hpp ****     }
  30:../../Classes/sigChain/sigChain_handler.hpp **** 
  31:../../Classes/sigChain/sigChain_handler.hpp **** 
  32:../../Classes/sigChain/sigChain_handler.hpp ****     /// @brief Process the sample going through the signal chain
  33:../../Classes/sigChain/sigChain_handler.hpp ****     /// @param sample sample to process through signal chain
  34:../../Classes/sigChain/sigChain_handler.hpp ****     /// @return processed sample
  35:../../Classes/sigChain/sigChain_handler.hpp ****     float Process (float sample){
  36:../../Classes/sigChain/sigChain_handler.hpp ****         float partial = sample;
  37:../../Classes/sigChain/sigChain_handler.hpp ****         for (unsigned int i = 0; i < _effectsCounter; i++){
  38:../../Classes/sigChain/sigChain_handler.hpp ****             partial = _effects[i]->Process(partial);
  39:../../Classes/sigChain/sigChain_handler.hpp ****         }
  40:../../Classes/sigChain/sigChain_handler.hpp ****         return partial;
  41:../../Classes/sigChain/sigChain_handler.hpp ****     }
  42:../../Classes/sigChain/sigChain_handler.hpp **** 
  43:../../Classes/sigChain/sigChain_handler.hpp ****     /// @brief Run the signal chain without passing a sample (use at own risk).
  44:../../Classes/sigChain/sigChain_handler.hpp ****     /// useful if at start of chain there is an oscillator, or something that generates
ARM GAS  C:\Users\matte\AppData\Local\Temp\cczyq38t.s 			page 13


  45:../../Classes/sigChain/sigChain_handler.hpp ****     /// the sample for the rest of the chain
  46:../../Classes/sigChain/sigChain_handler.hpp ****     /// @return processed sample
  47:../../Classes/sigChain/sigChain_handler.hpp ****     float Process (){
  48:../../Classes/sigChain/sigChain_handler.hpp ****         float dummySample = 0;
  49:../../Classes/sigChain/sigChain_handler.hpp ****         for (unsigned int i = 0; i < _effectsCounter; i++){
 173              		.loc 10 49 36 is_stmt 1 view .LVU23
 174 0014 DAF82030 		ldr	r3, [r10, #32]
 175 0018 F3B1     		cbz	r3, .L10
 176 001a 114D     		ldr	r5, .L20
 177              		.loc 10 49 27 is_stmt 0 view .LVU24
 178 001c 0024     		movs	r4, #0
 179              	.LBE210:
  48:../../Classes/sigChain/sigChain_handler.hpp ****         for (unsigned int i = 0; i < _effectsCounter; i++){
 180              		.loc 10 48 15 view .LVU25
 181 001e 9FED110A 		vldr.32	s0, .L20+4
 182              	.LVL5:
 183              	.L8:
 184              	.LBB211:
  50:../../Classes/sigChain/sigChain_handler.hpp ****             dummySample = _effects[i]->Process(dummySample);
 185              		.loc 10 50 13 is_stmt 1 view .LVU26
 186              		.loc 10 50 37 is_stmt 0 view .LVU27
 187 0022 55F8040F 		ldr	r0, [r5, #4]!
  49:../../Classes/sigChain/sigChain_handler.hpp ****             dummySample = _effects[i]->Process(dummySample);
 188              		.loc 10 49 9 view .LVU28
 189 0026 0134     		adds	r4, r4, #1
 190              	.LVL6:
 191              		.loc 10 50 59 view .LVU29
 192 0028 0368     		ldr	r3, [r0]
 193              		.loc 10 50 47 view .LVU30
 194 002a 1B68     		ldr	r3, [r3]
 195 002c 9847     		blx	r3
 196              	.LVL7:
  49:../../Classes/sigChain/sigChain_handler.hpp ****             dummySample = _effects[i]->Process(dummySample);
 197              		.loc 10 49 36 view .LVU31
 198 002e DAF82030 		ldr	r3, [r10, #32]
 199              	.LVL8:
  49:../../Classes/sigChain/sigChain_handler.hpp ****             dummySample = _effects[i]->Process(dummySample);
 200              		.loc 10 49 9 is_stmt 1 view .LVU32
  49:../../Classes/sigChain/sigChain_handler.hpp ****             dummySample = _effects[i]->Process(dummySample);
 201              		.loc 10 49 36 view .LVU33
 202 0032 A342     		cmp	r3, r4
 203 0034 F5D8     		bhi	.L8
 204              	.LVL9:
 205              	.L7:
  49:../../Classes/sigChain/sigChain_handler.hpp ****             dummySample = _effects[i]->Process(dummySample);
 206              		.loc 10 49 36 is_stmt 0 view .LVU34
 207              	.LBE211:
  51:../../Classes/sigChain/sigChain_handler.hpp ****         }
  52:../../Classes/sigChain/sigChain_handler.hpp ****         return dummySample;
 208              		.loc 10 52 9 is_stmt 1 view .LVU35
 209              	.LBE209:
 210              	.LBE208:
  38:src/main.cpp  **** 	{
  39:src/main.cpp  ****         // process sample through chain
  40:src/main.cpp  ****         outSample = chain1.Process();
  41:src/main.cpp  **** 
  42:src/main.cpp  ****         #ifdef DISPLAY
ARM GAS  C:\Users\matte\AppData\Local\Temp\cczyq38t.s 			page 14


  43:src/main.cpp  ****         // updates display (even if not displaying waveform)
  44:src/main.cpp  ****         disp1.pushAudioSample (outSample);
  45:src/main.cpp  ****         #endif // DISPLAY
  46:src/main.cpp  **** 
  47:src/main.cpp  ****         // output audio
  48:src/main.cpp  ****         out[0][i] = outSample;
  49:src/main.cpp  **** 		out[1][i] = outSample;
 211              		.loc 9 49 13 is_stmt 0 view .LVU36
 212 0036 D7E90023 		ldrd	r2, r3, [r7]
  40:src/main.cpp  **** 
 213              		.loc 9 40 19 view .LVU37
 214 003a 89ED000A 		vstr.32	s0, [r9]
  48:src/main.cpp  **** 		out[1][i] = outSample;
 215              		.loc 9 48 9 is_stmt 1 view .LVU38
  48:src/main.cpp  **** 		out[1][i] = outSample;
 216              		.loc 9 48 19 is_stmt 0 view .LVU39
 217 003e 02EB8602 		add	r2, r2, r6, lsl #2
 218              		.loc 9 49 13 view .LVU40
 219 0042 03EB8603 		add	r3, r3, r6, lsl #2
  37:src/main.cpp  **** 	{
 220              		.loc 9 37 2 view .LVU41
 221 0046 0136     		adds	r6, r6, #1
 222              	.LVL10:
  48:src/main.cpp  **** 		out[1][i] = outSample;
 223              		.loc 9 48 19 view .LVU42
 224 0048 82ED000A 		vstr.32	s0, [r2]
 225              		.loc 9 49 3 is_stmt 1 view .LVU43
  37:src/main.cpp  **** 	{
 226              		.loc 9 37 23 is_stmt 0 view .LVU44
 227 004c B045     		cmp	r8, r6
 228              		.loc 9 49 13 view .LVU45
 229 004e 83ED000A 		vstr.32	s0, [r3]
  37:src/main.cpp  **** 	{
 230              		.loc 9 37 2 is_stmt 1 view .LVU46
 231              	.LVL11:
  37:src/main.cpp  **** 	{
 232              		.loc 9 37 23 view .LVU47
 233 0052 DFD1     		bne	.L9
 234              	.LBE214:
  50:src/main.cpp  **** 	}
  51:src/main.cpp  **** }
 235              		.loc 9 51 1 is_stmt 0 view .LVU48
 236 0054 BDE8F087 		pop	{r4, r5, r6, r7, r8, r9, r10, pc}
 237              	.LVL12:
 238              	.L10:
 239              	.LBB215:
 240              	.LBB213:
 241              	.LBB212:
  48:../../Classes/sigChain/sigChain_handler.hpp ****         for (unsigned int i = 0; i < _effectsCounter; i++){
 242              		.loc 10 48 15 view .LVU49
 243 0058 9FED020A 		vldr.32	s0, .L20+4
 244 005c EBE7     		b	.L7
 245              	.LVL13:
 246              	.L17:
 247              		.cfi_def_cfa_offset 0
 248              		.cfi_restore 4
 249              		.cfi_restore 5
ARM GAS  C:\Users\matte\AppData\Local\Temp\cczyq38t.s 			page 15


 250              		.cfi_restore 6
 251              		.cfi_restore 7
 252              		.cfi_restore 8
 253              		.cfi_restore 9
 254              		.cfi_restore 10
 255              		.cfi_restore 14
  48:../../Classes/sigChain/sigChain_handler.hpp ****         for (unsigned int i = 0; i < _effectsCounter; i++){
 256              		.loc 10 48 15 view .LVU50
 257 005e 7047     		bx	lr
 258              	.L21:
 259              		.align	2
 260              	.L20:
 261 0060 FCFFFFFF 		.word	.LANCHOR0-4
 262 0064 00000000 		.word	0
 263 0068 00000000 		.word	.LANCHOR0
 264 006c 00000000 		.word	.LANCHOR1
 265              	.LBE212:
 266              	.LBE213:
 267              	.LBE215:
 268              		.cfi_endproc
 269              	.LFE5255:
 271              		.section	.text._ZN7daisysp10Oscillator7SetFreqEf,"axG",%progbits,_ZN7daisysp10Oscillator7SetFreqEf
 272              		.align	1
 273              		.p2align 2,,3
 274              		.weak	_ZN7daisysp10Oscillator7SetFreqEf
 275              		.syntax unified
 276              		.thumb
 277              		.thumb_func
 278              		.fpu fpv5-d16
 280              	_ZN7daisysp10Oscillator7SetFreqEf:
 281              	.LVL14:
 282              	.LFB4810:
  25:../../../libs/DaisySP/Source/Synthesis/oscillator.h ****     /** Choices for output waveforms, POLYBLEP are appropriately labeled. Others are naive forms.
  26:../../../libs/DaisySP/Source/Synthesis/oscillator.h ****     */
  27:../../../libs/DaisySP/Source/Synthesis/oscillator.h ****     enum
  28:../../../libs/DaisySP/Source/Synthesis/oscillator.h ****     {
  29:../../../libs/DaisySP/Source/Synthesis/oscillator.h ****         WAVE_SIN,
  30:../../../libs/DaisySP/Source/Synthesis/oscillator.h ****         WAVE_TRI,
  31:../../../libs/DaisySP/Source/Synthesis/oscillator.h ****         WAVE_SAW,
  32:../../../libs/DaisySP/Source/Synthesis/oscillator.h ****         WAVE_RAMP,
  33:../../../libs/DaisySP/Source/Synthesis/oscillator.h ****         WAVE_SQUARE,
  34:../../../libs/DaisySP/Source/Synthesis/oscillator.h ****         WAVE_POLYBLEP_TRI,
  35:../../../libs/DaisySP/Source/Synthesis/oscillator.h ****         WAVE_POLYBLEP_SAW,
  36:../../../libs/DaisySP/Source/Synthesis/oscillator.h ****         WAVE_POLYBLEP_SQUARE,
  37:../../../libs/DaisySP/Source/Synthesis/oscillator.h ****         WAVE_LAST,
  38:../../../libs/DaisySP/Source/Synthesis/oscillator.h ****     };
  39:../../../libs/DaisySP/Source/Synthesis/oscillator.h **** 
  40:../../../libs/DaisySP/Source/Synthesis/oscillator.h **** 
  41:../../../libs/DaisySP/Source/Synthesis/oscillator.h ****     /** Initializes the Oscillator
  42:../../../libs/DaisySP/Source/Synthesis/oscillator.h **** 
  43:../../../libs/DaisySP/Source/Synthesis/oscillator.h ****         \param sample_rate - sample rate of the audio engine being run, and the frequency that the 
  44:../../../libs/DaisySP/Source/Synthesis/oscillator.h **** 
  45:../../../libs/DaisySP/Source/Synthesis/oscillator.h ****         Defaults:
  46:../../../libs/DaisySP/Source/Synthesis/oscillator.h ****         - freq_ = 100 Hz
  47:../../../libs/DaisySP/Source/Synthesis/oscillator.h ****         - amp_ = 0.5
  48:../../../libs/DaisySP/Source/Synthesis/oscillator.h ****         - waveform_ = sine wave.
  49:../../../libs/DaisySP/Source/Synthesis/oscillator.h ****     */
ARM GAS  C:\Users\matte\AppData\Local\Temp\cczyq38t.s 			page 16


  50:../../../libs/DaisySP/Source/Synthesis/oscillator.h ****     void Init(float sample_rate)
  51:../../../libs/DaisySP/Source/Synthesis/oscillator.h ****     {
  52:../../../libs/DaisySP/Source/Synthesis/oscillator.h ****         sr_        = sample_rate;
  53:../../../libs/DaisySP/Source/Synthesis/oscillator.h ****         sr_recip_  = 1.0f / sample_rate;
  54:../../../libs/DaisySP/Source/Synthesis/oscillator.h ****         freq_      = 100.0f;
  55:../../../libs/DaisySP/Source/Synthesis/oscillator.h ****         amp_       = 0.5f;
  56:../../../libs/DaisySP/Source/Synthesis/oscillator.h ****         pw_        = 0.5f;
  57:../../../libs/DaisySP/Source/Synthesis/oscillator.h ****         phase_     = 0.0f;
  58:../../../libs/DaisySP/Source/Synthesis/oscillator.h ****         phase_inc_ = CalcPhaseInc(freq_);
  59:../../../libs/DaisySP/Source/Synthesis/oscillator.h ****         waveform_  = WAVE_SIN;
  60:../../../libs/DaisySP/Source/Synthesis/oscillator.h ****         eoc_       = true;
  61:../../../libs/DaisySP/Source/Synthesis/oscillator.h ****         eor_       = true;
  62:../../../libs/DaisySP/Source/Synthesis/oscillator.h ****     }
  63:../../../libs/DaisySP/Source/Synthesis/oscillator.h **** 
  64:../../../libs/DaisySP/Source/Synthesis/oscillator.h **** 
  65:../../../libs/DaisySP/Source/Synthesis/oscillator.h ****     /** Changes the frequency of the Oscillator, and recalculates phase increment.
  66:../../../libs/DaisySP/Source/Synthesis/oscillator.h ****     */
  67:../../../libs/DaisySP/Source/Synthesis/oscillator.h ****     inline void SetFreq(const float f)
 283              		.loc 7 67 17 is_stmt 1 view -0
 284              		.cfi_startproc
 285              		@ args = 0, pretend = 0, frame = 0
 286              		@ frame_needed = 0, uses_anonymous_args = 0
  68:../../../libs/DaisySP/Source/Synthesis/oscillator.h ****     {
  69:../../../libs/DaisySP/Source/Synthesis/oscillator.h ****         freq_      = f;
 287              		.loc 7 69 9 view .LVU52
  67:../../../libs/DaisySP/Source/Synthesis/oscillator.h ****     {
 288              		.loc 7 67 17 is_stmt 0 view .LVU53
 289 0000 10B5     		push	{r4, lr}
 290              		.cfi_def_cfa_offset 8
 291              		.cfi_offset 4, -8
 292              		.cfi_offset 14, -4
  67:../../../libs/DaisySP/Source/Synthesis/oscillator.h ****     {
 293              		.loc 7 67 17 view .LVU54
 294 0002 0446     		mov	r4, r0
 295              		.loc 7 69 20 view .LVU55
 296 0004 80ED020A 		vstr.32	s0, [r0, #8]
  70:../../../libs/DaisySP/Source/Synthesis/oscillator.h ****         phase_inc_ = CalcPhaseInc(f);
 297              		.loc 7 70 9 is_stmt 1 view .LVU56
 298              		.loc 7 70 34 is_stmt 0 view .LVU57
 299 0008 FFF7FEFF 		bl	_ZN7daisysp10Oscillator12CalcPhaseIncEf
 300              	.LVL15:
 301              		.loc 7 70 20 view .LVU58
 302 000c 84ED070A 		vstr.32	s0, [r4, #28]
  71:../../../libs/DaisySP/Source/Synthesis/oscillator.h ****     }
 303              		.loc 7 71 5 view .LVU59
 304 0010 10BD     		pop	{r4, pc}
 305              		.loc 7 71 5 view .LVU60
 306              		.cfi_endproc
 307              	.LFE4810:
 309 0012 00BF     		.section	.text._ZN13EffectWrapperIN7daisysp7TremoloEfffvE7ProcessEf,"axG",%progbits,_ZN13EffectWra
 310              		.align	1
 311              		.p2align 2,,3
 312              		.weak	_ZN13EffectWrapperIN7daisysp7TremoloEfffvE7ProcessEf
 313              		.syntax unified
 314              		.thumb
 315              		.thumb_func
 316              		.fpu fpv5-d16
ARM GAS  C:\Users\matte\AppData\Local\Temp\cczyq38t.s 			page 17


 318              	_ZN13EffectWrapperIN7daisysp7TremoloEfffvE7ProcessEf:
 319              	.LVL16:
 320              	.LFB5845:
 321              		.file 11 "../../Classes/effect/effectWrapper.cpp"
   1:../../Classes/effect/effectWrapper.cpp **** /// @file effect.hpp
   2:../../Classes/effect/effectWrapper.cpp **** 
   3:../../Classes/effect/effectWrapper.cpp **** 
   4:../../Classes/effect/effectWrapper.cpp **** // TODO:
   5:../../Classes/effect/effectWrapper.cpp **** //      implement variadic functionality
   6:../../Classes/effect/effectWrapper.cpp **** //      improve code readibilty with typedefs
   7:../../Classes/effect/effectWrapper.cpp **** //      divide implementation and definition
   8:../../Classes/effect/effectWrapper.cpp **** //      add constructor impl
   9:../../Classes/effect/effectWrapper.cpp **** //      update comments
  10:../../Classes/effect/effectWrapper.cpp **** //      add correct setParam instantiation
  11:../../Classes/effect/effectWrapper.cpp **** 
  12:../../Classes/effect/effectWrapper.cpp **** #include "effectInterface.cpp"
  13:../../Classes/effect/effectWrapper.cpp **** 
  14:../../Classes/effect/effectWrapper.cpp **** /// defines maximum number of param setter for a single block
  15:../../Classes/effect/effectWrapper.cpp **** #define MAX_N_OF_PARAM_SETTERS  4
  16:../../Classes/effect/effectWrapper.cpp **** 
  17:../../Classes/effect/effectWrapper.cpp **** /// @brief  template for signal chain block. Use it after instantiating the real effect
  18:../../Classes/effect/effectWrapper.cpp **** /// @tparam t_effect class of object that is to be wrapped
  19:../../Classes/effect/effectWrapper.cpp **** /// @tparam t_process type of process argument (default = float)
  20:../../Classes/effect/effectWrapper.cpp **** /// @tparam t_param1 type of first param (default = float)
  21:../../Classes/effect/effectWrapper.cpp **** /// @tparam t_param2 type of second param (default = float)
  22:../../Classes/effect/effectWrapper.cpp **** /// @tparam t_retVal1 type of return value of setter function (default = void)
  23:../../Classes/effect/effectWrapper.cpp **** template <  typename t_effect,
  24:../../Classes/effect/effectWrapper.cpp ****             typename t_process = float, 
  25:../../Classes/effect/effectWrapper.cpp ****             typename t_param1 = float, 
  26:../../Classes/effect/effectWrapper.cpp ****             typename t_param2 = float,
  27:../../Classes/effect/effectWrapper.cpp ****             typename t_retVal1 = void 
  28:../../Classes/effect/effectWrapper.cpp ****             > 
  29:../../Classes/effect/effectWrapper.cpp **** class EffectWrapper : public EffectInterface {
  30:../../Classes/effect/effectWrapper.cpp **** private:
  31:../../Classes/effect/effectWrapper.cpp ****     
  32:../../Classes/effect/effectWrapper.cpp ****     // pointer to wrapped object
  33:../../Classes/effect/effectWrapper.cpp ****     t_effect* _effectPtr = nullptr;
  34:../../Classes/effect/effectWrapper.cpp **** 
  35:../../Classes/effect/effectWrapper.cpp ****     // name of wrapper -> what will be accessed by sigChain 
  36:../../Classes/effect/effectWrapper.cpp ****     const char* _name = nullptr;
  37:../../Classes/effect/effectWrapper.cpp **** 
  38:../../Classes/effect/effectWrapper.cpp ****     // array of function pointers for setter of effect with single param
  39:../../Classes/effect/effectWrapper.cpp ****     t_retVal1 (t_effect::*_SetParamFunction_ptr [MAX_N_OF_PARAM_SETTERS]) (t_param1 param1) = {null
  40:../../Classes/effect/effectWrapper.cpp ****     
  41:../../Classes/effect/effectWrapper.cpp ****     // counter to keep track of latest addition to array
  42:../../Classes/effect/effectWrapper.cpp ****     unsigned int _setParamCounter = 0;
  43:../../Classes/effect/effectWrapper.cpp ****     
  44:../../Classes/effect/effectWrapper.cpp ****     // array of pointers to string containing param name
  45:../../Classes/effect/effectWrapper.cpp ****     const char* _paramNames[MAX_N_OF_PARAM_SETTERS] ;
  46:../../Classes/effect/effectWrapper.cpp ****     
  47:../../Classes/effect/effectWrapper.cpp ****     // array of function pointers for setter of effect with 2 params
  48:../../Classes/effect/effectWrapper.cpp ****     t_retVal1 (t_effect::*_SetParamsFunction_ptr[MAX_N_OF_PARAM_SETTERS]) (t_param1 param1, t_param
  49:../../Classes/effect/effectWrapper.cpp ****     
  50:../../Classes/effect/effectWrapper.cpp ****     // counter to keep track of latest addition to array
  51:../../Classes/effect/effectWrapper.cpp ****     unsigned int _setParamsCounter = 0;
  52:../../Classes/effect/effectWrapper.cpp ****     
  53:../../Classes/effect/effectWrapper.cpp ****     // array of string pointers containing the name of 2 param for the setters
ARM GAS  C:\Users\matte\AppData\Local\Temp\cczyq38t.s 			page 18


  54:../../Classes/effect/effectWrapper.cpp ****     const char* _paramsNames [MAX_N_OF_PARAM_SETTERS][2];      
  55:../../Classes/effect/effectWrapper.cpp ****     
  56:../../Classes/effect/effectWrapper.cpp ****     // function pointer for process
  57:../../Classes/effect/effectWrapper.cpp ****     float (t_effect::*_Process_ptr) (t_process) = nullptr;
  58:../../Classes/effect/effectWrapper.cpp **** 
  59:../../Classes/effect/effectWrapper.cpp ****     // function pointer for process with no arguments (e.g. oscillator)
  60:../../Classes/effect/effectWrapper.cpp ****     float (t_effect::*_ProcessWithNoArgs_ptr) () = nullptr;
  61:../../Classes/effect/effectWrapper.cpp **** public:
  62:../../Classes/effect/effectWrapper.cpp **** 
  63:../../Classes/effect/effectWrapper.cpp ****     EffectWrapper(){};
  64:../../Classes/effect/effectWrapper.cpp **** 
  65:../../Classes/effect/effectWrapper.cpp ****     /// @brief Parameter constructor for instantiating process function pointer
  66:../../Classes/effect/effectWrapper.cpp ****     /// @param Process_ptr process function pointer of original effect
  67:../../Classes/effect/effectWrapper.cpp ****     EffectWrapper(float (*Process_ptr)(t_process)){ addProcess(Process_ptr);}
  68:../../Classes/effect/effectWrapper.cpp **** 
  69:../../Classes/effect/effectWrapper.cpp ****     /// @brief Parameter constructor for instantiating parameter and process functions pointer
  70:../../Classes/effect/effectWrapper.cpp ****     /// @param Process_ptr process function pointer of original effect
  71:../../Classes/effect/effectWrapper.cpp ****     /// @param SetParamFunction_ptr function pointer of the setter of original effect
  72:../../Classes/effect/effectWrapper.cpp ****     EffectWrapper(  t_effect* effectPtr,
  73:../../Classes/effect/effectWrapper.cpp ****                     float (t_effect::*Process_ptr)(t_process), 
  74:../../Classes/effect/effectWrapper.cpp ****                     void (t_effect::*SetParamFunction_ptr)(t_param1))
  75:../../Classes/effect/effectWrapper.cpp ****     {
  76:../../Classes/effect/effectWrapper.cpp ****         _effectPtr = effectPtr;
  77:../../Classes/effect/effectWrapper.cpp ****         AddProcess(Process_ptr);
  78:../../Classes/effect/effectWrapper.cpp ****         AddSetParam(SetParamFunction_ptr);
  79:../../Classes/effect/effectWrapper.cpp ****     };
  80:../../Classes/effect/effectWrapper.cpp ****     
  81:../../Classes/effect/effectWrapper.cpp ****     /// @brief parameter constructor that sets process function, setter function and parameter name
  82:../../Classes/effect/effectWrapper.cpp ****     /// @param Process_ptr Function pointer to process 
  83:../../Classes/effect/effectWrapper.cpp ****     /// @param SetParamFunction_ptr Function pointer of setter
  84:../../Classes/effect/effectWrapper.cpp ****     /// @param paramName Pointer to string containing param name
  85:../../Classes/effect/effectWrapper.cpp ****     EffectWrapper( float (t_effect::*Process_ptr)(t_process),
  86:../../Classes/effect/effectWrapper.cpp ****             int (*SetParamFunction_ptr)(t_param1), 
  87:../../Classes/effect/effectWrapper.cpp ****             const char* paramName)
  88:../../Classes/effect/effectWrapper.cpp ****     {
  89:../../Classes/effect/effectWrapper.cpp ****         AddProcess(Process_ptr);
  90:../../Classes/effect/effectWrapper.cpp ****         AddSetParam(SetParamFunction_ptr, paramName);
  91:../../Classes/effect/effectWrapper.cpp ****     }
  92:../../Classes/effect/effectWrapper.cpp **** 
  93:../../Classes/effect/effectWrapper.cpp **** 
  94:../../Classes/effect/effectWrapper.cpp ****     /// @brief parameter constructor that sets process function, name, setter function and paramete
  95:../../Classes/effect/effectWrapper.cpp ****     /// @param effectPtr real effect obj pointer
  96:../../Classes/effect/effectWrapper.cpp ****     /// @param Process_ptr Function pointer to process 
  97:../../Classes/effect/effectWrapper.cpp ****     /// @param effectName name of effect to be displayed
  98:../../Classes/effect/effectWrapper.cpp ****     /// @param SetParamFunction_ptr Function pointer of setter
  99:../../Classes/effect/effectWrapper.cpp ****     /// @param paramName Pointer to string containing param name
 100:../../Classes/effect/effectWrapper.cpp ****     EffectWrapper(
 101:../../Classes/effect/effectWrapper.cpp ****             t_effect* effectPtr, 
 102:../../Classes/effect/effectWrapper.cpp ****             const char* effectName,
 103:../../Classes/effect/effectWrapper.cpp ****             void (t_effect::*SetParamFunction_ptr)(t_param1), 
 104:../../Classes/effect/effectWrapper.cpp ****             const char* paramName,
 105:../../Classes/effect/effectWrapper.cpp ****             float (t_effect::*Process_ptr)(t_process)  
 106:../../Classes/effect/effectWrapper.cpp ****         )
 107:../../Classes/effect/effectWrapper.cpp ****     {
 108:../../Classes/effect/effectWrapper.cpp ****         _effectPtr = effectPtr;
 109:../../Classes/effect/effectWrapper.cpp ****         _name = effectName;
 110:../../Classes/effect/effectWrapper.cpp ****         AddProcess(Process_ptr);
ARM GAS  C:\Users\matte\AppData\Local\Temp\cczyq38t.s 			page 19


 111:../../Classes/effect/effectWrapper.cpp ****         AddSetParam(SetParamFunction_ptr, paramName);
 112:../../Classes/effect/effectWrapper.cpp ****     }
 113:../../Classes/effect/effectWrapper.cpp **** 
 114:../../Classes/effect/effectWrapper.cpp **** 
 115:../../Classes/effect/effectWrapper.cpp ****     ~EffectWrapper(){};
 116:../../Classes/effect/effectWrapper.cpp **** 
 117:../../Classes/effect/effectWrapper.cpp **** 
 118:../../Classes/effect/effectWrapper.cpp ****     /// @brief adds the function pointer for a parameter setting
 119:../../Classes/effect/effectWrapper.cpp ****     /// @param SetParamFunction_ptr function pointer of the setter of original effect
 120:../../Classes/effect/effectWrapper.cpp ****     int AddSetParam (t_retVal1 (t_effect::*SetParamFunction_ptr)(t_param1)) {
 121:../../Classes/effect/effectWrapper.cpp ****         int oneIfFull = 0;
 122:../../Classes/effect/effectWrapper.cpp ****         if (_setParamCounter < MAX_N_OF_PARAM_SETTERS ){
 123:../../Classes/effect/effectWrapper.cpp ****             _SetParamFunction_ptr [_setParamCounter] = SetParamFunction_ptr;
 124:../../Classes/effect/effectWrapper.cpp ****             _setParamCounter++;
 125:../../Classes/effect/effectWrapper.cpp ****         }
 126:../../Classes/effect/effectWrapper.cpp ****         else {
 127:../../Classes/effect/effectWrapper.cpp ****             oneIfFull = 1;
 128:../../Classes/effect/effectWrapper.cpp ****         }         
 129:../../Classes/effect/effectWrapper.cpp ****         return oneIfFull;
 130:../../Classes/effect/effectWrapper.cpp ****     }
 131:../../Classes/effect/effectWrapper.cpp **** 
 132:../../Classes/effect/effectWrapper.cpp ****     /// @brief adds set param function to array and pointer to name of parameter
 133:../../Classes/effect/effectWrapper.cpp ****     /// @param SetParamFunction_ptr setParam function of original block
 134:../../Classes/effect/effectWrapper.cpp ****     /// @param paramName pointer to name of parameter
 135:../../Classes/effect/effectWrapper.cpp ****     /// @return -1 if no more functions can be added
 136:../../Classes/effect/effectWrapper.cpp ****     int AddSetParam (t_retVal1 (t_effect::*SetParamFunction_ptr)(t_param1), const char* paramName) 
 137:../../Classes/effect/effectWrapper.cpp ****         if (_setParamCounter < MAX_N_OF_PARAM_SETTERS ){
 138:../../Classes/effect/effectWrapper.cpp ****             _SetParamFunction_ptr [_setParamCounter] = SetParamFunction_ptr;
 139:../../Classes/effect/effectWrapper.cpp ****             _paramNames[_setParamCounter] = paramName; 
 140:../../Classes/effect/effectWrapper.cpp ****             _setParamCounter++;
 141:../../Classes/effect/effectWrapper.cpp ****             return 0;
 142:../../Classes/effect/effectWrapper.cpp ****         }
 143:../../Classes/effect/effectWrapper.cpp ****         else {
 144:../../Classes/effect/effectWrapper.cpp ****             return -1;
 145:../../Classes/effect/effectWrapper.cpp ****         }         
 146:../../Classes/effect/effectWrapper.cpp ****     }
 147:../../Classes/effect/effectWrapper.cpp **** 
 148:../../Classes/effect/effectWrapper.cpp ****     /// @brief add function that sets two parameters
 149:../../Classes/effect/effectWrapper.cpp ****     /// @param SetParamsFunction_ptr pointer to function that sets two parameters
 150:../../Classes/effect/effectWrapper.cpp ****     /// @return -1 if full
 151:../../Classes/effect/effectWrapper.cpp ****     int AddSetParams(t_retVal1 (*SetParamsFunction_ptr)(t_param1,t_param2)){
 152:../../Classes/effect/effectWrapper.cpp ****         if(_setParamsCounter < MAX_N_OF_PARAM_SETTERS){
 153:../../Classes/effect/effectWrapper.cpp ****             _SetParamsFunction_ptr = SetParamsFunction_ptr;
 154:../../Classes/effect/effectWrapper.cpp ****             _setParamsCounter++;
 155:../../Classes/effect/effectWrapper.cpp ****             return 0;    
 156:../../Classes/effect/effectWrapper.cpp ****         }
 157:../../Classes/effect/effectWrapper.cpp ****         else {
 158:../../Classes/effect/effectWrapper.cpp ****             return -1;
 159:../../Classes/effect/effectWrapper.cpp ****         }
 160:../../Classes/effect/effectWrapper.cpp ****         
 161:../../Classes/effect/effectWrapper.cpp ****     }
 162:../../Classes/effect/effectWrapper.cpp **** 
 163:../../Classes/effect/effectWrapper.cpp ****     /// @brief  add function that sets two parameters, with given name
 164:../../Classes/effect/effectWrapper.cpp ****     /// @param SetParamsFunction_ptr pointer to function that sets parameters
 165:../../Classes/effect/effectWrapper.cpp ****     /// @param paramName1 name of parameter 1
 166:../../Classes/effect/effectWrapper.cpp ****     /// @param paramName2 name of parameter 2  
 167:../../Classes/effect/effectWrapper.cpp ****     /// @return -1 if full
ARM GAS  C:\Users\matte\AppData\Local\Temp\cczyq38t.s 			page 20


 168:../../Classes/effect/effectWrapper.cpp ****     int AddSetParams(t_retVal1 (*SetParamsFunction_ptr)(t_param1,t_param2),
 169:../../Classes/effect/effectWrapper.cpp ****                      const char* paramName1,
 170:../../Classes/effect/effectWrapper.cpp ****                      const char* paramName2)
 171:../../Classes/effect/effectWrapper.cpp ****     {
 172:../../Classes/effect/effectWrapper.cpp **** 
 173:../../Classes/effect/effectWrapper.cpp ****         if(_setParamsCounter < MAX_N_OF_PARAM_SETTERS){
 174:../../Classes/effect/effectWrapper.cpp ****             _SetParamsFunction_ptr = SetParamsFunction_ptr;
 175:../../Classes/effect/effectWrapper.cpp ****             _paramsNames[_setParamsCounter][0] = paramName1; // position of first parameter
 176:../../Classes/effect/effectWrapper.cpp ****             _paramsNames[_setParamsCounter][1] = paramName2; // position of second parameter
 177:../../Classes/effect/effectWrapper.cpp ****             _setParamsCounter++;    
 178:../../Classes/effect/effectWrapper.cpp ****         }
 179:../../Classes/effect/effectWrapper.cpp ****         else {
 180:../../Classes/effect/effectWrapper.cpp ****             return -1;
 181:../../Classes/effect/effectWrapper.cpp ****         }        
 182:../../Classes/effect/effectWrapper.cpp ****     }
 183:../../Classes/effect/effectWrapper.cpp **** 
 184:../../Classes/effect/effectWrapper.cpp ****     /// @brief sets the function pointer for Process
 185:../../Classes/effect/effectWrapper.cpp ****     /// @param Process_ptr function pointer of Process of original effect
 186:../../Classes/effect/effectWrapper.cpp ****     inline void AddProcess (float (t_effect::*Process_ptr)(t_process)) {_Process_ptr = Process_ptr;
 187:../../Classes/effect/effectWrapper.cpp ****    
 188:../../Classes/effect/effectWrapper.cpp ****     
 189:../../Classes/effect/effectWrapper.cpp ****     
 190:../../Classes/effect/effectWrapper.cpp ****     /// @brief sets the function pointer for Process without args
 191:../../Classes/effect/effectWrapper.cpp ****     /// @param Process_ptr function pointer of Process of original effect
 192:../../Classes/effect/effectWrapper.cpp ****     inline void AddProcess (float (t_effect::*ProcWithNoArgs_ptr)()) {_ProcessWithNoArgs_ptr = Proc
 193:../../Classes/effect/effectWrapper.cpp ****    
 194:../../Classes/effect/effectWrapper.cpp **** 
 195:../../Classes/effect/effectWrapper.cpp ****     /// @brief Sets the effect pointer
 196:../../Classes/effect/effectWrapper.cpp ****     /// @param effectPtr effect pointer
 197:../../Classes/effect/effectWrapper.cpp ****     inline void AddEffectPtr (t_effect* effectPtr) {_effectPtr=effectPtr;}
 198:../../Classes/effect/effectWrapper.cpp ****     
 199:../../Classes/effect/effectWrapper.cpp ****     /// @brief Process function
 200:../../Classes/effect/effectWrapper.cpp ****     /// @param sample sample to process
 201:../../Classes/effect/effectWrapper.cpp ****     /// @return processed sample
 202:../../Classes/effect/effectWrapper.cpp ****     inline float Process (t_process sample) {
 322              		.loc 11 202 18 is_stmt 1 view -0
 323              		.cfi_startproc
 324              		@ args = 0, pretend = 0, frame = 0
 325              		@ frame_needed = 0, uses_anonymous_args = 0
 326              		@ link register save eliminated.
 203:../../Classes/effect/effectWrapper.cpp ****         float processedSample = 0;
 204:../../Classes/effect/effectWrapper.cpp **** 
 205:../../Classes/effect/effectWrapper.cpp ****         // IMPORTANT: is used to make the signal chain work in case
 206:../../Classes/effect/effectWrapper.cpp ****         // the effect doesn't use process with arg (e.g. oscillator)
 207:../../Classes/effect/effectWrapper.cpp ****         
 208:../../Classes/effect/effectWrapper.cpp ****         if (_Process_ptr == nullptr){
 327              		.loc 11 208 26 is_stmt 0 view .LVU62
 328 0000 D0E92121 		ldrd	r2, r1, [r0, #132]
 202:../../Classes/effect/effectWrapper.cpp ****         float processedSample = 0;
 329              		.loc 11 202 18 view .LVU63
 330 0004 0346     		mov	r3, r0
 331              	.LVL17:
 332              		.loc 11 208 26 view .LVU64
 333 0006 2AB1     		cbz	r2, .L34
 209:../../Classes/effect/effectWrapper.cpp ****             
 210:../../Classes/effect/effectWrapper.cpp ****             // means no one used the process with args: no args case
 211:../../Classes/effect/effectWrapper.cpp ****             processedSample = (_effectPtr->*_ProcessWithNoArgs_ptr)();
ARM GAS  C:\Users\matte\AppData\Local\Temp\cczyq38t.s 			page 21


 212:../../Classes/effect/effectWrapper.cpp ****         }
 213:../../Classes/effect/effectWrapper.cpp ****         else {
 214:../../Classes/effect/effectWrapper.cpp **** 
 215:../../Classes/effect/effectWrapper.cpp ****             // if also this wasn't setted properly it shouldnt compile
 216:../../Classes/effect/effectWrapper.cpp ****             processedSample = (_effectPtr->*_Process_ptr) (sample);
 334              		.loc 11 216 59 view .LVU65
 335 0008 4068     		ldr	r0, [r0, #4]
 336              	.LVL18:
 337              		.loc 11 216 59 view .LVU66
 338 000a CB07     		lsls	r3, r1, #31
 339              	.LVL19:
 340              		.loc 11 216 59 view .LVU67
 341 000c 00EB6100 		add	r0, r0, r1, asr #1
 342 0010 05D4     		bmi	.L30
 343              		.loc 11 216 59 discriminator 4 view .LVU68
 344 0012 1047     		bx	r2
 345              	.LVL20:
 346              	.L34:
 208:../../Classes/effect/effectWrapper.cpp ****             
 347              		.loc 11 208 26 discriminator 1 view .LVU69
 348 0014 C807     		lsls	r0, r1, #31
 349              	.LVL21:
 208:../../Classes/effect/effectWrapper.cpp ****             
 350              		.loc 11 208 26 discriminator 1 view .LVU70
 351 0016 05D5     		bpl	.L35
 352              		.loc 11 216 59 view .LVU71
 353 0018 5868     		ldr	r0, [r3, #4]
 354 001a 00EB6100 		add	r0, r0, r1, asr #1
 355              	.LVL22:
 356              	.L30:
 357              		.loc 11 216 59 discriminator 2 view .LVU72
 358 001e 0368     		ldr	r3, [r0]
 359 0020 9A58     		ldr	r2, [r3, r2]
 360 0022 1047     		bx	r2
 361              	.LVL23:
 362              	.L35:
 363              	.LBB218:
 364              	.LBI218:
 202:../../Classes/effect/effectWrapper.cpp ****         float processedSample = 0;
 365              		.loc 11 202 18 is_stmt 1 view .LVU73
 366              	.LBB219:
 211:../../Classes/effect/effectWrapper.cpp ****         }
 367              		.loc 11 211 68 is_stmt 0 view .LVU74
 368 0024 D3F89020 		ldr	r2, [r3, #144]
 369 0028 5968     		ldr	r1, [r3, #4]
 370 002a 4FEA620C 		asr	ip, r2, #1
 371 002e 01EB6200 		add	r0, r1, r2, asr #1
 372 0032 D207     		lsls	r2, r2, #31
 373 0034 02D4     		bmi	.L27
 374 0036 D3F88C30 		ldr	r3, [r3, #140]
 375              	.LVL24:
 376              	.L28:
 211:../../Classes/effect/effectWrapper.cpp ****         }
 377              		.loc 11 211 68 view .LVU75
 378 003a 1847     		bx	r3
 379              	.LVL25:
 380              	.L27:
ARM GAS  C:\Users\matte\AppData\Local\Temp\cczyq38t.s 			page 22


 211:../../Classes/effect/effectWrapper.cpp ****         }
 381              		.loc 11 211 68 view .LVU76
 382 003c 51F80C20 		ldr	r2, [r1, ip]
 383 0040 D3F88C30 		ldr	r3, [r3, #140]
 384              	.LVL26:
 211:../../Classes/effect/effectWrapper.cpp ****         }
 385              		.loc 11 211 68 view .LVU77
 386 0044 D358     		ldr	r3, [r2, r3]
 387 0046 F8E7     		b	.L28
 388              	.LBE219:
 389              	.LBE218:
 390              		.cfi_endproc
 391              	.LFE5845:
 393              		.section	.text._ZN13EffectWrapperIN7daisysp10OscillatorEfffvE7ProcessEf,"axG",%progbits,_ZN13Effec
 394              		.align	1
 395              		.p2align 2,,3
 396              		.weak	_ZN13EffectWrapperIN7daisysp10OscillatorEfffvE7ProcessEf
 397              		.syntax unified
 398              		.thumb
 399              		.thumb_func
 400              		.fpu fpv5-d16
 402              	_ZN13EffectWrapperIN7daisysp10OscillatorEfffvE7ProcessEf:
 403              	.LVL27:
 404              	.LFB5846:
 202:../../Classes/effect/effectWrapper.cpp ****         float processedSample = 0;
 405              		.loc 11 202 18 is_stmt 1 view -0
 406              		.cfi_startproc
 407              		@ args = 0, pretend = 0, frame = 0
 408              		@ frame_needed = 0, uses_anonymous_args = 0
 409              		@ link register save eliminated.
 208:../../Classes/effect/effectWrapper.cpp ****             
 410              		.loc 11 208 26 is_stmt 0 view .LVU79
 411 0000 D0E92121 		ldrd	r2, r1, [r0, #132]
 202:../../Classes/effect/effectWrapper.cpp ****         float processedSample = 0;
 412              		.loc 11 202 18 view .LVU80
 413 0004 0346     		mov	r3, r0
 414              	.LVL28:
 208:../../Classes/effect/effectWrapper.cpp ****             
 415              		.loc 11 208 26 view .LVU81
 416 0006 2AB1     		cbz	r2, .L46
 417              		.loc 11 216 59 view .LVU82
 418 0008 4068     		ldr	r0, [r0, #4]
 419              	.LVL29:
 420              		.loc 11 216 59 view .LVU83
 421 000a CB07     		lsls	r3, r1, #31
 422              	.LVL30:
 423              		.loc 11 216 59 view .LVU84
 424 000c 00EB6100 		add	r0, r0, r1, asr #1
 425 0010 05D4     		bmi	.L42
 426              		.loc 11 216 59 discriminator 4 view .LVU85
 427 0012 1047     		bx	r2
 428              	.LVL31:
 429              	.L46:
 208:../../Classes/effect/effectWrapper.cpp ****             
 430              		.loc 11 208 26 discriminator 1 view .LVU86
 431 0014 C807     		lsls	r0, r1, #31
 432              	.LVL32:
ARM GAS  C:\Users\matte\AppData\Local\Temp\cczyq38t.s 			page 23


 208:../../Classes/effect/effectWrapper.cpp ****             
 433              		.loc 11 208 26 discriminator 1 view .LVU87
 434 0016 05D5     		bpl	.L47
 435              		.loc 11 216 59 view .LVU88
 436 0018 5868     		ldr	r0, [r3, #4]
 437 001a 00EB6100 		add	r0, r0, r1, asr #1
 438              	.LVL33:
 439              	.L42:
 440              		.loc 11 216 59 discriminator 2 view .LVU89
 441 001e 0368     		ldr	r3, [r0]
 442 0020 9A58     		ldr	r2, [r3, r2]
 443 0022 1047     		bx	r2
 444              	.LVL34:
 445              	.L47:
 446              	.LBB222:
 447              	.LBI222:
 202:../../Classes/effect/effectWrapper.cpp ****         float processedSample = 0;
 448              		.loc 11 202 18 is_stmt 1 view .LVU90
 449              	.LBB223:
 211:../../Classes/effect/effectWrapper.cpp ****         }
 450              		.loc 11 211 68 is_stmt 0 view .LVU91
 451 0024 D3F89020 		ldr	r2, [r3, #144]
 452 0028 5968     		ldr	r1, [r3, #4]
 453 002a 4FEA620C 		asr	ip, r2, #1
 454 002e 01EB6200 		add	r0, r1, r2, asr #1
 455 0032 D207     		lsls	r2, r2, #31
 456 0034 02D4     		bmi	.L39
 457 0036 D3F88C30 		ldr	r3, [r3, #140]
 458              	.LVL35:
 459              	.L40:
 211:../../Classes/effect/effectWrapper.cpp ****         }
 460              		.loc 11 211 68 view .LVU92
 461 003a 1847     		bx	r3
 462              	.LVL36:
 463              	.L39:
 211:../../Classes/effect/effectWrapper.cpp ****         }
 464              		.loc 11 211 68 view .LVU93
 465 003c 51F80C20 		ldr	r2, [r1, ip]
 466 0040 D3F88C30 		ldr	r3, [r3, #140]
 467              	.LVL37:
 211:../../Classes/effect/effectWrapper.cpp ****         }
 468              		.loc 11 211 68 view .LVU94
 469 0044 D358     		ldr	r3, [r2, r3]
 470 0046 F8E7     		b	.L40
 471              	.LBE223:
 472              	.LBE222:
 473              		.cfi_endproc
 474              	.LFE5846:
 476              		.section	.rodata.main.str1.4,"aMS",%progbits,1
 477              		.align	2
 478              	.LC0:
 479 0000 5472656D 		.ascii	"Tremolo\000"
 479      6F6C6F00 
 480              		.align	2
 481              	.LC1:
 482 0008 46726571 		.ascii	"Frequency\000"
 482      75656E63 
ARM GAS  C:\Users\matte\AppData\Local\Temp\cczyq38t.s 			page 24


 482      7900
 483              		.section	.text.startup.main,"ax",%progbits
 484              		.align	1
 485              		.p2align 2,,3
 486              		.global	main
 487              		.syntax unified
 488              		.thumb
 489              		.thumb_func
 490              		.fpu fpv5-d16
 492              	main:
 493              	.LFB5256:
  52:src/main.cpp  **** 
  53:src/main.cpp  **** 
  54:src/main.cpp  **** int main (){
 494              		.loc 9 54 12 is_stmt 1 view -0
 495              		.cfi_startproc
 496              		@ args = 0, pretend = 0, frame = 296
 497              		@ frame_needed = 0, uses_anonymous_args = 0
  55:src/main.cpp  **** 
  56:src/main.cpp  **** 	hw.Init();
 498              		.loc 9 56 2 view .LVU96
  54:src/main.cpp  **** 
 499              		.loc 9 54 12 is_stmt 0 view .LVU97
 500 0000 F0B5     		push	{r4, r5, r6, r7, lr}
 501              		.cfi_def_cfa_offset 20
 502              		.cfi_offset 4, -20
 503              		.cfi_offset 5, -16
 504              		.cfi_offset 6, -12
 505              		.cfi_offset 7, -8
 506              		.cfi_offset 14, -4
 507              		.loc 9 56 9 view .LVU98
 508 0002 0021     		movs	r1, #0
 509 0004 5648     		ldr	r0, .L60
 510              	.LBB254:
 511              	.LBB255:
  52:../../../libs/DaisySP/Source/Synthesis/oscillator.h ****         sr_recip_  = 1.0f / sample_rate;
 512              		.loc 7 52 20 view .LVU99
 513 0006 574D     		ldr	r5, .L60+4
  59:../../../libs/DaisySP/Source/Synthesis/oscillator.h ****         eoc_       = true;
 514              		.loc 7 59 20 view .LVU100
 515 0008 0024     		movs	r4, #0
 516              	.LBE255:
 517              	.LBE254:
  57:src/main.cpp  **** 	hw.SetAudioBlockSize(4); // number of samples handled per callback
  58:src/main.cpp  **** 	hw.SetAudioSampleRate(SaiHandle::Config::SampleRate::SAI_48KHZ);
  59:src/main.cpp  **** 	hw.StartAudio(AudioCallback);
  60:src/main.cpp  ****     int sample_rate = 48000;
  61:src/main.cpp  **** 
  62:src/main.cpp  ****     /* MAIN BLOCKS INITIALIZATION */
  63:src/main.cpp  ****     // here the blocks of the signal chain are initialized
  64:src/main.cpp  ****     lfo1.Init(sample_rate);
  65:src/main.cpp  ****     // MAKE THIS WORK
  66:src/main.cpp  ****     // lfo1.SetWaveform(Oscillator::WAVE_SAW);
  67:src/main.cpp  ****     
  68:src/main.cpp  ****     trem1.Init(sample_rate);
 518              		.loc 9 68 15 view .LVU101
 519 000a 574E     		ldr	r6, .L60+8
ARM GAS  C:\Users\matte\AppData\Local\Temp\cczyq38t.s 			page 25


 520              	.LBB260:
 521              	.LBB261:
 124:../../Classes/effect/effectWrapper.cpp ****         }
 522              		.loc 11 124 13 view .LVU102
 523 000c 0127     		movs	r7, #1
 524              	.LBE261:
 525              	.LBE260:
  54:src/main.cpp  **** 
 526              		.loc 9 54 12 view .LVU103
 527 000e 2DED028B 		vpush.64	{d8}
 528              		.cfi_def_cfa_offset 28
 529              		.cfi_offset 80, -28
 530              		.cfi_offset 81, -24
 531 0012 CBB0     		sub	sp, sp, #300
 532              		.cfi_def_cfa_offset 328
 533              	.LBB265:
 534              	.LBB256:
  52:../../../libs/DaisySP/Source/Synthesis/oscillator.h ****         sr_recip_  = 1.0f / sample_rate;
 535              		.loc 7 52 20 view .LVU104
 536 0014 9FED558A 		vldr.32	s16, .L60+12
 537              	.LBE256:
 538              	.LBE265:
  56:src/main.cpp  **** 	hw.SetAudioBlockSize(4); // number of samples handled per callback
 539              		.loc 9 56 9 view .LVU105
 540 0018 FFF7FEFF 		bl	_ZN5daisy9DaisySeed4InitEb
 541              	.LVL38:
  57:src/main.cpp  **** 	hw.SetAudioSampleRate(SaiHandle::Config::SampleRate::SAI_48KHZ);
 542              		.loc 9 57 2 is_stmt 1 view .LVU106
  57:src/main.cpp  **** 	hw.SetAudioSampleRate(SaiHandle::Config::SampleRate::SAI_48KHZ);
 543              		.loc 9 57 22 is_stmt 0 view .LVU107
 544 001c 0421     		movs	r1, #4
 545 001e 5048     		ldr	r0, .L60
 546 0020 FFF7FEFF 		bl	_ZN5daisy9DaisySeed17SetAudioBlockSizeEj
 547              	.LVL39:
  58:src/main.cpp  **** 	hw.StartAudio(AudioCallback);
 548              		.loc 9 58 2 is_stmt 1 view .LVU108
  58:src/main.cpp  **** 	hw.StartAudio(AudioCallback);
 549              		.loc 9 58 23 is_stmt 0 view .LVU109
 550 0024 0321     		movs	r1, #3
 551 0026 4E48     		ldr	r0, .L60
 552 0028 FFF7FEFF 		bl	_ZN5daisy9DaisySeed18SetAudioSampleRateENS_9SaiHandle6Config10SampleRateE
 553              	.LVL40:
  59:src/main.cpp  ****     int sample_rate = 48000;
 554              		.loc 9 59 2 is_stmt 1 view .LVU110
  59:src/main.cpp  ****     int sample_rate = 48000;
 555              		.loc 9 59 15 is_stmt 0 view .LVU111
 556 002c 5049     		ldr	r1, .L60+16
 557 002e 4C48     		ldr	r0, .L60
 558 0030 FFF7FEFF 		bl	_ZN5daisy9DaisySeed10StartAudioEPFvPKPKfPPfjE
 559              	.LVL41:
  60:src/main.cpp  **** 
 560              		.loc 9 60 5 is_stmt 1 view .LVU112
  64:src/main.cpp  ****     // MAKE THIS WORK
 561              		.loc 9 64 5 view .LVU113
 562              	.LBB266:
 563              	.LBI254:
  50:../../../libs/DaisySP/Source/Synthesis/oscillator.h ****     {
ARM GAS  C:\Users\matte\AppData\Local\Temp\cczyq38t.s 			page 26


 564              		.loc 7 50 10 view .LVU114
 565              	.LBB257:
  52:../../../libs/DaisySP/Source/Synthesis/oscillator.h ****         sr_recip_  = 1.0f / sample_rate;
 566              		.loc 7 52 9 view .LVU115
  55:../../../libs/DaisySP/Source/Synthesis/oscillator.h ****         pw_        = 0.5f;
 567              		.loc 7 55 20 is_stmt 0 view .LVU116
 568 0034 4FF07C53 		mov	r3, #1056964608
  53:../../../libs/DaisySP/Source/Synthesis/oscillator.h ****         freq_      = 100.0f;
 569              		.loc 7 53 20 view .LVU117
 570 0038 4E49     		ldr	r1, .L60+20
  57:../../../libs/DaisySP/Source/Synthesis/oscillator.h ****         phase_inc_ = CalcPhaseInc(freq_);
 571              		.loc 7 57 20 view .LVU118
 572 003a 0022     		movs	r2, #0
  54:../../../libs/DaisySP/Source/Synthesis/oscillator.h ****         amp_       = 0.5f;
 573              		.loc 7 54 20 view .LVU119
 574 003c 9FED4E0A 		vldr.32	s0, .L60+24
  58:../../../libs/DaisySP/Source/Synthesis/oscillator.h ****         waveform_  = WAVE_SIN;
 575              		.loc 7 58 34 view .LVU120
 576 0040 2846     		mov	r0, r5
  53:../../../libs/DaisySP/Source/Synthesis/oscillator.h ****         freq_      = 100.0f;
 577              		.loc 7 53 20 view .LVU121
 578 0042 6961     		str	r1, [r5, #20]	@ float
  57:../../../libs/DaisySP/Source/Synthesis/oscillator.h ****         phase_inc_ = CalcPhaseInc(freq_);
 579              		.loc 7 57 20 view .LVU122
 580 0044 AA61     		str	r2, [r5, #24]	@ float
  55:../../../libs/DaisySP/Source/Synthesis/oscillator.h ****         pw_        = 0.5f;
 581              		.loc 7 55 20 view .LVU123
 582 0046 6B60     		str	r3, [r5, #4]	@ float
  56:../../../libs/DaisySP/Source/Synthesis/oscillator.h ****         phase_     = 0.0f;
 583              		.loc 7 56 20 view .LVU124
 584 0048 EB60     		str	r3, [r5, #12]	@ float
  52:../../../libs/DaisySP/Source/Synthesis/oscillator.h ****         sr_recip_  = 1.0f / sample_rate;
 585              		.loc 7 52 20 view .LVU125
 586 004a 85ED048A 		vstr.32	s16, [r5, #16]
  53:../../../libs/DaisySP/Source/Synthesis/oscillator.h ****         freq_      = 100.0f;
 587              		.loc 7 53 9 is_stmt 1 view .LVU126
  54:../../../libs/DaisySP/Source/Synthesis/oscillator.h ****         amp_       = 0.5f;
 588              		.loc 7 54 9 view .LVU127
  54:../../../libs/DaisySP/Source/Synthesis/oscillator.h ****         amp_       = 0.5f;
 589              		.loc 7 54 20 is_stmt 0 view .LVU128
 590 004e 85ED020A 		vstr.32	s0, [r5, #8]
  55:../../../libs/DaisySP/Source/Synthesis/oscillator.h ****         pw_        = 0.5f;
 591              		.loc 7 55 9 is_stmt 1 view .LVU129
  56:../../../libs/DaisySP/Source/Synthesis/oscillator.h ****         phase_     = 0.0f;
 592              		.loc 7 56 9 view .LVU130
  57:../../../libs/DaisySP/Source/Synthesis/oscillator.h ****         phase_inc_ = CalcPhaseInc(freq_);
 593              		.loc 7 57 9 view .LVU131
  58:../../../libs/DaisySP/Source/Synthesis/oscillator.h ****         waveform_  = WAVE_SIN;
 594              		.loc 7 58 9 view .LVU132
  58:../../../libs/DaisySP/Source/Synthesis/oscillator.h ****         waveform_  = WAVE_SIN;
 595              		.loc 7 58 34 is_stmt 0 view .LVU133
 596 0052 FFF7FEFF 		bl	_ZN7daisysp10Oscillator12CalcPhaseIncEf
 597              	.LVL42:
 598 0056 F0EE407A 		vmov.f32	s15, s0
  61:../../../libs/DaisySP/Source/Synthesis/oscillator.h ****     }
 599              		.loc 7 61 20 view .LVU134
 600 005a 40F20113 		movw	r3, #257
ARM GAS  C:\Users\matte\AppData\Local\Temp\cczyq38t.s 			page 27


 601              	.LBE257:
 602              	.LBE266:
 603              		.loc 9 68 15 view .LVU135
 604 005e B0EE480A 		vmov.f32	s0, s16
 605 0062 3046     		mov	r0, r6
 606              	.LBB267:
 607              	.LBB258:
  61:../../../libs/DaisySP/Source/Synthesis/oscillator.h ****     }
 608              		.loc 7 61 20 view .LVU136
 609 0064 2B85     		strh	r3, [r5, #40]	@ movhi
  58:../../../libs/DaisySP/Source/Synthesis/oscillator.h ****         waveform_  = WAVE_SIN;
 610              		.loc 7 58 20 view .LVU137
 611 0066 C5ED077A 		vstr.32	s15, [r5, #28]
  59:../../../libs/DaisySP/Source/Synthesis/oscillator.h ****         eoc_       = true;
 612              		.loc 7 59 9 is_stmt 1 view .LVU138
  60:../../../libs/DaisySP/Source/Synthesis/oscillator.h ****         eor_       = true;
 613              		.loc 7 60 9 view .LVU139
  61:../../../libs/DaisySP/Source/Synthesis/oscillator.h ****     }
 614              		.loc 7 61 9 view .LVU140
 615              	.LVL43:
  61:../../../libs/DaisySP/Source/Synthesis/oscillator.h ****     }
 616              		.loc 7 61 9 is_stmt 0 view .LVU141
 617              	.LBE258:
 618              	.LBE267:
 619              		.loc 9 68 5 is_stmt 1 view .LVU142
 620              	.LBB268:
 621              	.LBB259:
  59:../../../libs/DaisySP/Source/Synthesis/oscillator.h ****         eoc_       = true;
 622              		.loc 7 59 20 is_stmt 0 view .LVU143
 623 006a 2C70     		strb	r4, [r5]
 624              	.LBE259:
 625              	.LBE268:
 626              		.loc 9 68 15 view .LVU144
 627 006c FFF7FEFF 		bl	_ZN7daisysp7Tremolo4InitEf
 628              	.LVL44:
  69:src/main.cpp  **** 
  70:src/main.cpp  ****     #ifdef DISPLAY
  71:src/main.cpp  ****     // init real display, PINS
  72:src/main.cpp  ****     // - SDA  i2c_config.pin_config.scl = Pin(PORTB, 8);
  73:src/main.cpp  ****     // - SCL i2c_config.pin_config.sda = Pin(PORTB, 9);
  74:src/main.cpp  ****     MyOledDisplay::Config disp_cfg;
  75:src/main.cpp  ****     realDisp.Init(disp_cfg);
  76:src/main.cpp  ****     #endif //  DISPLAY
  77:src/main.cpp  **** 
  78:src/main.cpp  ****     /* WRAPPER INSTANTIATION*/
  79:src/main.cpp  **** 
  80:src/main.cpp  ****     // instantiation of effect wrapper:
  81:src/main.cpp  ****     // - the first templated argument tells it the return value
  82:src/main.cpp  ****     //   of the process function
  83:src/main.cpp  ****     // - the second templated argument is the type of process arg
  84:src/main.cpp  ****     // - the third templated argument tells it the argument value of
  85:src/main.cpp  ****     //   the setter function, in this case SetFreq(float);
  86:src/main.cpp  ****     // - the fourth templated argument is not needed now but would be
  87:src/main.cpp  ****     //   the second argument of the setter function that takes 2 args
  88:src/main.cpp  ****     // - the fifth templated argument would be the return type of setters   
  89:src/main.cpp  ****     EffectWrapper <daisysp::Oscillator, float, float> oscWrapper;
 629              		.loc 9 89 5 is_stmt 1 view .LVU145
ARM GAS  C:\Users\matte\AppData\Local\Temp\cczyq38t.s 			page 28


 630              	.LBB269:
 631              	.LBI269:
  63:../../Classes/effect/effectWrapper.cpp **** 
 632              		.loc 11 63 5 view .LVU146
 633              	.LBB270:
 634              	.LBB271:
 635              	.LBB272:
 636              	.LBI272:
 637              		.file 12 "../../Classes/effect/effectInterface.hpp"
   1:../../Classes/effect/effectInterface.hpp **** #ifndef EFFECT_INTERFACE
   2:../../Classes/effect/effectInterface.hpp **** #define EFFECT_INTERFACE
   3:../../Classes/effect/effectInterface.hpp **** class EffectInterface {
 638              		.loc 12 3 7 view .LVU147
 639              		.loc 12 3 7 is_stmt 0 view .LVU148
 640              	.LBE272:
  63:../../Classes/effect/effectWrapper.cpp **** 
 641              		.loc 11 63 20 view .LVU149
 642 0070 424B     		ldr	r3, .L60+28
 643 0072 2022     		movs	r2, #32
 644 0074 2146     		mov	r1, r4
 645 0076 10A8     		add	r0, sp, #64
 646 0078 0093     		str	r3, [sp]
 647 007a 0294     		str	r4, [sp, #8]
 648 007c 0A94     		str	r4, [sp, #40]
 649 007e CDE90444 		strd	r4, r4, [sp, #16]
 650 0082 CDE90644 		strd	r4, r4, [sp, #24]
 651 0086 CDE90844 		strd	r4, r4, [sp, #32]
 652 008a FFF7FEFF 		bl	memset
 653              	.LVL45:
 654              	.LBE271:
 655              	.LBE270:
 656              	.LBE269:
 657              	.LBB279:
 658              	.LBB262:
 123:../../Classes/effect/effectWrapper.cpp ****             _setParamCounter++;
 659              		.loc 11 123 54 view .LVU150
 660 008e 3C4B     		ldr	r3, .L60+32
 661              	.LBE262:
 662              	.LBE279:
 663              	.LBB280:
 664              	.LBB281:
 217:../../Classes/effect/effectWrapper.cpp ****         }
 218:../../Classes/effect/effectWrapper.cpp **** 
 219:../../Classes/effect/effectWrapper.cpp ****         return processedSample;
 220:../../Classes/effect/effectWrapper.cpp ****     }
 221:../../Classes/effect/effectWrapper.cpp **** 
 222:../../Classes/effect/effectWrapper.cpp ****     /// @brief getters that returns pointer to name
 223:../../Classes/effect/effectWrapper.cpp ****     /// @return pointer to name
 224:../../Classes/effect/effectWrapper.cpp ****     const char* getName() {return _name;}
 225:../../Classes/effect/effectWrapper.cpp ****     
 226:../../Classes/effect/effectWrapper.cpp ****     /// @brief call set param function of original effect
 227:../../Classes/effect/effectWrapper.cpp ****     /// @param param1 new value of parameter
 228:../../Classes/effect/effectWrapper.cpp ****     inline void SetParam (t_param1 param1) {return (_effectPtr->*_SetParamFunction_ptr[0]) (param1)
 665              		.loc 11 228 92 view .LVU151
 666 0090 9FED3C0A 		vldr.32	s0, .L60+36
 667 0094 2846     		mov	r0, r5
 668              	.LBE281:
ARM GAS  C:\Users\matte\AppData\Local\Temp\cczyq38t.s 			page 29


 669              	.LBE280:
 670              	.LBB283:
 671              	.LBB263:
 123:../../Classes/effect/effectWrapper.cpp ****             _setParamCounter++;
 672              		.loc 11 123 54 view .LVU152
 673 0096 0393     		str	r3, [sp, #12]
 674              	.LBE263:
 675              	.LBE283:
 676              	.LBB284:
 677              	.LBB285:
 192:../../Classes/effect/effectWrapper.cpp ****    
 678              		.loc 11 192 94 view .LVU153
 679 0098 3B4B     		ldr	r3, .L60+40
 680              	.LBE285:
 681              	.LBE284:
 682              	.LBB287:
 683              	.LBB276:
 684              	.LBB273:
  63:../../Classes/effect/effectWrapper.cpp **** 
 685              		.loc 11 63 20 view .LVU154
 686 009a 1894     		str	r4, [sp, #96]
 687              	.LBE273:
 688              	.LBE276:
 689              	.LBE287:
 690              	.LBB288:
 691              	.LBB286:
 192:../../Classes/effect/effectWrapper.cpp ****    
 692              		.loc 11 192 94 view .LVU155
 693 009c 2393     		str	r3, [sp, #140]
 694              	.LBE286:
 695              	.LBE288:
 696              	.LBB289:
 697              	.LBB277:
 698              	.LBB274:
  63:../../Classes/effect/effectWrapper.cpp **** 
 699              		.loc 11 63 20 view .LVU156
 700 009e 2494     		str	r4, [sp, #144]
 701              	.LVL46:
  63:../../Classes/effect/effectWrapper.cpp **** 
 702              		.loc 11 63 20 view .LVU157
 703              	.LBE274:
 704              	.LBE277:
 705              	.LBE289:
  90:src/main.cpp  ****     
  91:src/main.cpp  ****     // creation of function pointers to pass to effect wrapper
  92:src/main.cpp  ****     // can be done before to use constructor (cleaner)     
  93:src/main.cpp  ****     void (daisysp::Oscillator::* setPtr)(float) = &daisysp::Oscillator::SetFreq;
 706              		.loc 9 93 5 is_stmt 1 view .LVU158
  94:src/main.cpp  ****     float (daisysp::Oscillator::* processPtr)() = &daisysp::Oscillator::Process; 
 707              		.loc 9 94 5 view .LVU159
  95:src/main.cpp  **** 
  96:src/main.cpp  ****     // setting of internal pointers of wrapper
  97:src/main.cpp  ****     oscWrapper.AddSetParam(setPtr);
 708              		.loc 9 97 5 view .LVU160
 709              	.LBB290:
 710              	.LBI260:
 120:../../Classes/effect/effectWrapper.cpp ****         int oneIfFull = 0;
ARM GAS  C:\Users\matte\AppData\Local\Temp\cczyq38t.s 			page 30


 711              		.loc 11 120 9 view .LVU161
 120:../../Classes/effect/effectWrapper.cpp ****         int oneIfFull = 0;
 712              		.loc 11 120 9 is_stmt 0 view .LVU162
 713              	.LBE290:
 714              	.LBB291:
 715              	.LBB292:
 197:../../Classes/effect/effectWrapper.cpp ****     
 716              		.loc 11 197 63 view .LVU163
 717 00a0 0195     		str	r5, [sp, #4]
 718              	.LBE292:
 719              	.LBE291:
 720              	.LBB293:
 721              	.LBB264:
 124:../../Classes/effect/effectWrapper.cpp ****         }
 722              		.loc 11 124 13 view .LVU164
 723 00a2 0B97     		str	r7, [sp, #44]
 724              	.LVL47:
 124:../../Classes/effect/effectWrapper.cpp ****         }
 725              		.loc 11 124 13 view .LVU165
 726              	.LBE264:
 727              	.LBE293:
  98:src/main.cpp  ****     oscWrapper.AddProcess (processPtr);
 728              		.loc 9 98 5 is_stmt 1 view .LVU166
 729              	.LBB294:
 730              	.LBI284:
 192:../../Classes/effect/effectWrapper.cpp ****    
 731              		.loc 11 192 17 view .LVU167
 192:../../Classes/effect/effectWrapper.cpp ****    
 732              		.loc 11 192 17 is_stmt 0 view .LVU168
 733              	.LBE294:
  99:src/main.cpp  ****     oscWrapper.AddEffectPtr(&lfo1);
 734              		.loc 9 99 5 is_stmt 1 view .LVU169
 735              	.LBB295:
 736              	.LBI291:
 197:../../Classes/effect/effectWrapper.cpp ****     
 737              		.loc 11 197 17 view .LVU170
 197:../../Classes/effect/effectWrapper.cpp ****     
 738              		.loc 11 197 17 is_stmt 0 view .LVU171
 739              	.LBE295:
 100:src/main.cpp  **** 
 101:src/main.cpp  ****     // setting parameter
 102:src/main.cpp  ****     float frequency = 500;
 740              		.loc 9 102 5 is_stmt 1 view .LVU172
 103:src/main.cpp  ****     oscWrapper.SetParam(frequency);
 741              		.loc 9 103 5 view .LVU173
 742              	.LBB296:
 743              	.LBI280:
 744              		.loc 11 228 17 view .LVU174
 745              	.LBE296:
 746              	.LBB297:
 747              	.LBB278:
 748              	.LBB275:
  63:../../Classes/effect/effectWrapper.cpp **** 
 749              		.loc 11 63 20 is_stmt 0 view .LVU175
 750 00a4 CDE92144 		strd	r4, r4, [sp, #132]
 751              	.LBE275:
 752              	.LBE278:
ARM GAS  C:\Users\matte\AppData\Local\Temp\cczyq38t.s 			page 31


 753              	.LBE297:
 754              	.LBB298:
 755              	.LBB282:
 756              		.loc 11 228 92 view .LVU176
 757 00a8 FFF7FEFF 		bl	_ZN7daisysp10Oscillator7SetFreqEf
 758              	.LVL48:
 759              		.loc 11 228 92 view .LVU177
 760              	.LBE282:
 761              	.LBE298:
 104:src/main.cpp  **** 
 105:src/main.cpp  **** 
 106:src/main.cpp  ****     // the wrapper can be created on a oneliner
 107:src/main.cpp  ****     EffectWrapper <daisysp::Tremolo,float,float> tremWrapper (
 762              		.loc 9 107 5 is_stmt 1 view .LVU178
 763              	.LBB299:
 764              	.LBI299:
 100:../../Classes/effect/effectWrapper.cpp ****             t_effect* effectPtr, 
 765              		.loc 11 100 5 view .LVU179
 766              	.LBB300:
 767              	.LBB301:
 768              	.LBB302:
 769              	.LBI302:
 770              		.loc 12 3 7 view .LVU180
 771              		.loc 12 3 7 is_stmt 0 view .LVU181
 772              	.LBE302:
 107:../../Classes/effect/effectWrapper.cpp ****         _effectPtr = effectPtr;
 773              		.loc 11 107 5 view .LVU182
 774 00ac 374B     		ldr	r3, .L60+44
 775 00ae 2022     		movs	r2, #32
 776 00b0 2146     		mov	r1, r4
 777 00b2 35A8     		add	r0, sp, #212
 778 00b4 2593     		str	r3, [sp, #148]
 779 00b6 2B94     		str	r4, [sp, #172]
 780 00b8 CDE92944 		strd	r4, r4, [sp, #164]
 781 00bc CDE92C44 		strd	r4, r4, [sp, #176]
 782 00c0 CDE92E44 		strd	r4, r4, [sp, #184]
 783 00c4 FFF7FEFF 		bl	memset
 784              	.LVL49:
 785              	.LBB303:
 786              	.LBB304:
 138:../../Classes/effect/effectWrapper.cpp ****             _paramNames[_setParamCounter] = paramName; 
 787              		.loc 11 138 54 view .LVU183
 788 00c8 314A     		ldr	r2, .L60+48
 789              	.LBE304:
 790              	.LBE303:
 109:../../Classes/effect/effectWrapper.cpp ****         AddProcess(Process_ptr);
 791              		.loc 11 109 15 view .LVU184
 792 00ca 324B     		ldr	r3, .L60+52
 793              	.LBE301:
 794              	.LBE300:
 795              	.LBE299:
 796              	.LBB327:
 797              	.LBB328:
 798              		.loc 11 228 92 view .LVU185
 799 00cc B7EE000A 		vmov.f32	s0, #1.0e+0
 800              	.LBE328:
 801              	.LBE327:
ARM GAS  C:\Users\matte\AppData\Local\Temp\cczyq38t.s 			page 32


 802              	.LBB331:
 803              	.LBB324:
 804              	.LBB321:
 805              	.LBB309:
 806              	.LBB305:
 138:../../Classes/effect/effectWrapper.cpp ****             _paramNames[_setParamCounter] = paramName; 
 807              		.loc 11 138 54 view .LVU186
 808 00d0 2892     		str	r2, [sp, #160]
 809              	.LBE305:
 810              	.LBE309:
 811              	.LBE321:
 812              	.LBE324:
 813              	.LBE331:
 814              	.LBB332:
 815              	.LBB329:
 816              		.loc 11 228 92 view .LVU187
 817 00d2 3046     		mov	r0, r6
 818              	.LBE329:
 819              	.LBE332:
 820              	.LBB333:
 821              	.LBB325:
 822              	.LBB322:
 823              	.LBB310:
 824              	.LBB306:
 139:../../Classes/effect/effectWrapper.cpp ****             _setParamCounter++;
 825              		.loc 11 139 43 view .LVU188
 826 00d4 304A     		ldr	r2, .L60+56
 827              	.LBE306:
 828              	.LBE310:
 109:../../Classes/effect/effectWrapper.cpp ****         AddProcess(Process_ptr);
 829              		.loc 11 109 15 view .LVU189
 830 00d6 2793     		str	r3, [sp, #156]
 831              	.LVL50:
 832              	.LBB311:
 833              	.LBI311:
 186:../../Classes/effect/effectWrapper.cpp ****    
 834              		.loc 11 186 17 is_stmt 1 view .LVU190
 186:../../Classes/effect/effectWrapper.cpp ****    
 835              		.loc 11 186 17 is_stmt 0 view .LVU191
 836              	.LBE311:
 837              	.LBB315:
 838              	.LBI303:
 136:../../Classes/effect/effectWrapper.cpp ****         if (_setParamCounter < MAX_N_OF_PARAM_SETTERS ){
 839              		.loc 11 136 9 is_stmt 1 view .LVU192
 136:../../Classes/effect/effectWrapper.cpp ****         if (_setParamCounter < MAX_N_OF_PARAM_SETTERS ){
 840              		.loc 11 136 9 is_stmt 0 view .LVU193
 841              	.LBE315:
 842              	.LBE322:
 843              	.LBE325:
 844              	.LBE333:
 108:src/main.cpp  ****         &trem1, "Tremolo",
 109:src/main.cpp  ****         &daisysp::Tremolo::SetFreq, "Frequency",
 110:src/main.cpp  ****         &daisysp::Tremolo::Process
 111:src/main.cpp  ****     );
 112:src/main.cpp  **** 
 113:src/main.cpp  ****     // Hz
 114:src/main.cpp  ****     float tremTime = 1.f;
ARM GAS  C:\Users\matte\AppData\Local\Temp\cczyq38t.s 			page 33


 845              		.loc 9 114 5 is_stmt 1 view .LVU194
 115:src/main.cpp  ****     tremWrapper.SetParam(tremTime);
 846              		.loc 9 115 5 view .LVU195
 847              	.LBB334:
 848              	.LBI327:
 849              		.loc 11 228 17 view .LVU196
 850              	.LBE334:
 851              	.LBB335:
 852              	.LBB326:
 853              	.LBB323:
 854              	.LBB316:
 855              	.LBB312:
 186:../../Classes/effect/effectWrapper.cpp ****    
 856              		.loc 11 186 86 is_stmt 0 view .LVU197
 857 00d8 304B     		ldr	r3, .L60+60
 858              	.LBE312:
 859              	.LBE316:
 860              	.LBB317:
 861              	.LBB307:
 139:../../Classes/effect/effectWrapper.cpp ****             _setParamCounter++;
 862              		.loc 11 139 43 view .LVU198
 863 00da 3192     		str	r2, [sp, #196]
 864              	.LBE307:
 865              	.LBE317:
 866              	.LBB318:
 867              	.LBB313:
 186:../../Classes/effect/effectWrapper.cpp ****    
 868              		.loc 11 186 86 view .LVU199
 869 00dc 4693     		str	r3, [sp, #280]
 870              	.LBE313:
 871              	.LBE318:
 872              	.LBB319:
 873              	.LBB308:
 140:../../Classes/effect/effectWrapper.cpp ****             return 0;
 874              		.loc 11 140 13 view .LVU200
 875 00de 3097     		str	r7, [sp, #192]
 876              	.LBE308:
 877              	.LBE319:
 107:../../Classes/effect/effectWrapper.cpp ****         _effectPtr = effectPtr;
 878              		.loc 11 107 5 view .LVU201
 879 00e0 3D94     		str	r4, [sp, #244]
 880              	.LBB320:
 881              	.LBB314:
 186:../../Classes/effect/effectWrapper.cpp ****    
 882              		.loc 11 186 86 view .LVU202
 883 00e2 4794     		str	r4, [sp, #284]
 884              	.LBE314:
 885              	.LBE320:
 108:../../Classes/effect/effectWrapper.cpp ****         _name = effectName;
 886              		.loc 11 108 20 view .LVU203
 887 00e4 2696     		str	r6, [sp, #152]
 107:../../Classes/effect/effectWrapper.cpp ****         _effectPtr = effectPtr;
 888              		.loc 11 107 5 view .LVU204
 889 00e6 CDE94844 		strd	r4, r4, [sp, #288]
 890              	.LBE323:
 891              	.LBE326:
 892              	.LBE335:
ARM GAS  C:\Users\matte\AppData\Local\Temp\cczyq38t.s 			page 34


 893              	.LBB336:
 894              	.LBB330:
 895              		.loc 11 228 92 view .LVU205
 896 00ea FFF7FEFF 		bl	_ZN7daisysp7Tremolo7SetFreqEf
 897              	.LVL51:
 898              		.loc 11 228 92 view .LVU206
 899              	.LBE330:
 900              	.LBE336:
 116:src/main.cpp  **** 
 117:src/main.cpp  ****     // first block inserted: works because of POLYMORPHISM
 118:src/main.cpp  ****     chain1.addEffect (&oscWrapper);
 901              		.loc 9 118 5 is_stmt 1 view .LVU207
 902              	.LBB337:
 903              	.LBI337:
  19:../../Classes/sigChain/sigChain_handler.hpp ****         int oneIfFull = 0;
 904              		.loc 10 19 9 view .LVU208
 905              	.LBB338:
  20:../../Classes/sigChain/sigChain_handler.hpp ****         if (_effectsCounter < MAX_NUM_OF_BLOCKS){
 906              		.loc 10 20 9 view .LVU209
  21:../../Classes/sigChain/sigChain_handler.hpp ****              _effects[_effectsCounter] = effect;
 907              		.loc 10 21 9 view .LVU210
  21:../../Classes/sigChain/sigChain_handler.hpp ****              _effects[_effectsCounter] = effect;
 908              		.loc 10 21 13 is_stmt 0 view .LVU211
 909 00ee 2C4A     		ldr	r2, .L60+64
 910 00f0 136A     		ldr	r3, [r2, #32]
  21:../../Classes/sigChain/sigChain_handler.hpp ****              _effects[_effectsCounter] = effect;
 911              		.loc 10 21 9 view .LVU212
 912 00f2 072B     		cmp	r3, #7
 913 00f4 0AD8     		bhi	.L50
  22:../../Classes/sigChain/sigChain_handler.hpp ****              _effectsCounter++;
 914              		.loc 10 22 14 is_stmt 1 view .LVU213
  23:../../Classes/sigChain/sigChain_handler.hpp ****          } 
 915              		.loc 10 23 29 is_stmt 0 view .LVU214
 916 00f6 D919     		adds	r1, r3, r7
  22:../../Classes/sigChain/sigChain_handler.hpp ****              _effectsCounter++;
 917              		.loc 10 22 40 view .LVU215
 918 00f8 42F823D0 		str	sp, [r2, r3, lsl #2]
  23:../../Classes/sigChain/sigChain_handler.hpp ****          } 
 919              		.loc 10 23 14 is_stmt 1 view .LVU216
 920              	.LBE338:
 921              	.LBE337:
 922              	.LBB340:
 923              	.LBB341:
  21:../../Classes/sigChain/sigChain_handler.hpp ****              _effects[_effectsCounter] = effect;
 924              		.loc 10 21 9 is_stmt 0 view .LVU217
 925 00fc 0829     		cmp	r1, #8
 926              	.LBE341:
 927              	.LBE340:
 928              	.LBB343:
 929              	.LBB339:
  23:../../Classes/sigChain/sigChain_handler.hpp ****          } 
 930              		.loc 10 23 29 view .LVU218
 931 00fe 1162     		str	r1, [r2, #32]
 932              	.LVL52:
  28:../../Classes/sigChain/sigChain_handler.hpp ****     }
 933              		.loc 10 28 9 is_stmt 1 view .LVU219
  28:../../Classes/sigChain/sigChain_handler.hpp ****     }
ARM GAS  C:\Users\matte\AppData\Local\Temp\cczyq38t.s 			page 35


 934              		.loc 10 28 9 is_stmt 0 view .LVU220
 935              	.LBE339:
 936              	.LBE343:
 119:src/main.cpp  ****     chain1.addEffect (&tremWrapper);
 937              		.loc 9 119 5 is_stmt 1 view .LVU221
 938              	.LBB344:
 939              	.LBI340:
  19:../../Classes/sigChain/sigChain_handler.hpp ****         int oneIfFull = 0;
 940              		.loc 10 19 9 view .LVU222
 941              	.LBB342:
  20:../../Classes/sigChain/sigChain_handler.hpp ****         if (_effectsCounter < MAX_NUM_OF_BLOCKS){
 942              		.loc 10 20 9 view .LVU223
  21:../../Classes/sigChain/sigChain_handler.hpp ****              _effects[_effectsCounter] = effect;
 943              		.loc 10 21 9 view .LVU224
 944 0100 04D0     		beq	.L50
  22:../../Classes/sigChain/sigChain_handler.hpp ****              _effectsCounter++;
 945              		.loc 10 22 14 view .LVU225
  22:../../Classes/sigChain/sigChain_handler.hpp ****              _effectsCounter++;
 946              		.loc 10 22 40 is_stmt 0 view .LVU226
 947 0102 25A8     		add	r0, sp, #148
 948              	.LVL53:
  23:../../Classes/sigChain/sigChain_handler.hpp ****          } 
 949              		.loc 10 23 29 view .LVU227
 950 0104 0233     		adds	r3, r3, #2
  22:../../Classes/sigChain/sigChain_handler.hpp ****              _effectsCounter++;
 951              		.loc 10 22 40 view .LVU228
 952 0106 42F82100 		str	r0, [r2, r1, lsl #2]
  23:../../Classes/sigChain/sigChain_handler.hpp ****          } 
 953              		.loc 10 23 14 is_stmt 1 view .LVU229
  23:../../Classes/sigChain/sigChain_handler.hpp ****          } 
 954              		.loc 10 23 29 is_stmt 0 view .LVU230
 955 010a 1362     		str	r3, [r2, #32]
 956              	.LVL54:
 957              	.L50:
  23:../../Classes/sigChain/sigChain_handler.hpp ****          } 
 958              		.loc 10 23 29 view .LVU231
 959              	.LBE342:
 960              	.LBE344:
  54:src/main.cpp  **** 
 961              		.loc 9 54 12 discriminator 1 view .LVU232
 962 010c 9FED1D8A 		vldr.32	s16, .L60+36
 963 0110 16E0     		b	.L54
 964              	.LVL55:
 965              	.L59:
 966              	.LBB345:
 967              	.LBB346:
 968              		.loc 11 228 92 view .LVU233
 969 0112 039B     		ldr	r3, [sp, #12]
 970              	.L53:
 971 0114 B0EE480A 		vmov.f32	s0, s16
 972 0118 9847     		blx	r3
 973              	.LVL56:
 974              		.loc 11 228 92 view .LVU234
 975              	.LBE346:
 976              	.LBE345:
 120:src/main.cpp  **** 
 121:src/main.cpp  **** 
ARM GAS  C:\Users\matte\AppData\Local\Temp\cczyq38t.s 			page 36


 122:src/main.cpp  ****     #ifdef DISPLAY
 123:src/main.cpp  ****     // set display state at start
 124:src/main.cpp  ****     disp1.SetState(DisplayState::STANDBY);
 125:src/main.cpp  ****     bool flag = false;  
 126:src/main.cpp  ****     #endif // DISPLAY
 127:src/main.cpp  **** 
 128:src/main.cpp  ****     while (1)
 129:src/main.cpp  ****     {
 130:src/main.cpp  ****         hw.DelayMs(10);
 131:src/main.cpp  **** 
 132:src/main.cpp  ****         // should do a glissando up to 440Hz
 133:src/main.cpp  ****         oscWrapper.SetParam(frequency);
 134:src/main.cpp  ****         frequency = ((int)frequency + 5) % 880;
 977              		.loc 9 134 9 is_stmt 1 view .LVU235
 978              		.loc 9 134 22 is_stmt 0 view .LVU236
 979 011a FDEEC87A 		vcvt.s32.f32	s15, s16
 980              		.loc 9 134 42 view .LVU237
 981 011e 2149     		ldr	r1, .L60+68
 982 0120 4FF45C70 		mov	r0, #880
 983              		.loc 9 134 22 view .LVU238
 984 0124 17EE903A 		vmov	r3, s15	@ int
 985              		.loc 9 134 37 view .LVU239
 986 0128 0533     		adds	r3, r3, #5
 987              		.loc 9 134 42 view .LVU240
 988 012a 81FB0321 		smull	r2, r1, r1, r3
 989 012e DA17     		asrs	r2, r3, #31
 990 0130 C2EB6112 		rsb	r2, r2, r1, asr #5
 991 0134 00FB1232 		mls	r2, r0, r2, r3
 992              		.loc 9 134 19 view .LVU241
 993 0138 07EE902A 		vmov	s15, r2	@ int
 994 013c B8EEE78A 		vcvt.f32.s32	s16, s15
 995              	.LVL57:
 128:src/main.cpp  ****     {
 996              		.loc 9 128 5 is_stmt 1 view .LVU242
 997              	.L54:
 128:src/main.cpp  ****     {
 998              		.loc 9 128 5 discriminator 1 view .LVU243
 130:src/main.cpp  **** 
 999              		.loc 9 130 9 discriminator 1 view .LVU244
 130:src/main.cpp  **** 
 1000              		.loc 9 130 19 is_stmt 0 discriminator 1 view .LVU245
 1001 0140 0A21     		movs	r1, #10
 1002 0142 0748     		ldr	r0, .L60
 1003 0144 FFF7FEFF 		bl	_ZN5daisy9DaisySeed7DelayMsEj
 1004              	.LVL58:
 133:src/main.cpp  ****         frequency = ((int)frequency + 5) % 880;
 1005              		.loc 9 133 9 is_stmt 1 discriminator 1 view .LVU246
 1006              	.LBB348:
 1007              	.LBI345:
 1008              		.loc 11 228 17 discriminator 1 view .LVU247
 1009              	.LBB347:
 1010              		.loc 11 228 92 is_stmt 0 discriminator 1 view .LVU248
 1011 0148 049B     		ldr	r3, [sp, #16]
 1012 014a 019A     		ldr	r2, [sp, #4]
 1013 014c 5910     		asrs	r1, r3, #1
 1014 014e 02EB6300 		add	r0, r2, r3, asr #1
 1015 0152 DB07     		lsls	r3, r3, #31
ARM GAS  C:\Users\matte\AppData\Local\Temp\cczyq38t.s 			page 37


 1016 0154 DDD5     		bpl	.L59
 1017              		.loc 11 228 92 view .LVU249
 1018 0156 5258     		ldr	r2, [r2, r1]
 1019 0158 039B     		ldr	r3, [sp, #12]
 1020 015a D358     		ldr	r3, [r2, r3]
 1021 015c DAE7     		b	.L53
 1022              	.L61:
 1023 015e 00BF     		.align	2
 1024              	.L60:
 1025 0160 00000000 		.word	.LANCHOR2
 1026 0164 00000000 		.word	.LANCHOR3
 1027 0168 00000000 		.word	.LANCHOR4
 1028 016c 00803B47 		.word	1195081728
 1029 0170 00000000 		.word	_Z13AudioCallbackPKPKfPPfj
 1030 0174 3EC3AE37 		.word	934200126
 1031 0178 0000C842 		.word	1120403456
 1032 017c 08000000 		.word	_ZTV13EffectWrapperIN7daisysp10OscillatorEfffvE+8
 1033 0180 00000000 		.word	_ZN7daisysp10Oscillator7SetFreqEf
 1034 0184 0000FA43 		.word	1140457472
 1035 0188 00000000 		.word	_ZN7daisysp10Oscillator7ProcessEv
 1036 018c 08000000 		.word	_ZTV13EffectWrapperIN7daisysp7TremoloEfffvE+8
 1037 0190 00000000 		.word	_ZN7daisysp7Tremolo7SetFreqEf
 1038 0194 00000000 		.word	.LC0
 1039 0198 08000000 		.word	.LC1
 1040 019c 00000000 		.word	_ZN7daisysp7Tremolo7ProcessEf
 1041 01a0 00000000 		.word	.LANCHOR0
 1042 01a4 95204F09 		.word	156180629
 1043              	.LBE347:
 1044              	.LBE348:
 1045              		.cfi_endproc
 1046              	.LFE5256:
 1048              		.section	.text.startup._GLOBAL__sub_I_hw,"ax",%progbits
 1049              		.align	1
 1050              		.p2align 2,,3
 1051              		.syntax unified
 1052              		.thumb
 1053              		.thumb_func
 1054              		.fpu fpv5-d16
 1056              	_GLOBAL__sub_I_hw:
 1057              	.LFB5847:
 135:src/main.cpp  ****        
 136:src/main.cpp  ****         #ifdef DISPLAY
 137:src/main.cpp  ****         // Switches between standby and waveform every cycle of audio
 138:src/main.cpp  ****         if (frequency == 875){
 139:src/main.cpp  ****             if (flag == false){
 140:src/main.cpp  ****                 disp1.SetState(DisplayState::WAVEFORM_VIEWER);
 141:src/main.cpp  ****                 flag = true;
 142:src/main.cpp  ****             }
 143:src/main.cpp  ****             else{
 144:src/main.cpp  ****                 disp1.SetState(DisplayState::STANDBY);
 145:src/main.cpp  ****                 flag = false;
 146:src/main.cpp  ****             }
 147:src/main.cpp  ****         }
 148:src/main.cpp  ****         disp1.Update();
 149:src/main.cpp  ****         #endif // DISPLAY 
 150:src/main.cpp  ****     }
 151:src/main.cpp  **** 
ARM GAS  C:\Users\matte\AppData\Local\Temp\cczyq38t.s 			page 38


 152:src/main.cpp  ****     return 0;
 153:src/main.cpp  **** }...
 1058              		.loc 9 153 1 is_stmt 1 view -0
 1059              		.cfi_startproc
 1060              		@ args = 0, pretend = 0, frame = 0
 1061              		@ frame_needed = 0, uses_anonymous_args = 0
 1062              	.LBB423:
 1063              	.LBI423:
 1064              		.loc 9 153 1 view .LVU251
 1065              	.LVL59:
 1066              	.LBB424:
 1067              	.LBB425:
 1068              	.LBI425:
  21:../../../libs/libDaisy/src/sys/../../../../libs/libDaisy/src/daisy_seed.h ****     ~DaisySeed() {}
 1069              		.loc 1 21 5 view .LVU252
 1070              	.LBB426:
 1071              	.LBB427:
 1072              	.LBI427:
 1073              		.file 13 "../../../libs/libDaisy/src/sys/../../../../libs/libDaisy/src/per/qspi.h"
   1:../../../libs/libDaisy/src/sys/../../../../libs/libDaisy/src/per/qspi.h **** #ifndef DSY_QSPI
   2:../../../libs/libDaisy/src/sys/../../../../libs/libDaisy/src/per/qspi.h **** #define DSY_QSPI /**< Macro */
   3:../../../libs/libDaisy/src/sys/../../../../libs/libDaisy/src/per/qspi.h **** 
   4:../../../libs/libDaisy/src/sys/../../../../libs/libDaisy/src/per/qspi.h **** #ifndef UNIT_TEST // for unit tests, a dummy implementation
   5:../../../libs/libDaisy/src/sys/../../../../libs/libDaisy/src/per/qspi.h **** 
   6:../../../libs/libDaisy/src/sys/../../../../libs/libDaisy/src/per/qspi.h **** #include <cstdint>
   7:../../../libs/libDaisy/src/sys/../../../../libs/libDaisy/src/per/qspi.h **** #include "daisy_core.h"
   8:../../../libs/libDaisy/src/sys/../../../../libs/libDaisy/src/per/qspi.h **** #include "util/hal_map.h"
   9:../../../libs/libDaisy/src/sys/../../../../libs/libDaisy/src/per/qspi.h **** 
  10:../../../libs/libDaisy/src/sys/../../../../libs/libDaisy/src/per/qspi.h **** #define DSY_QSPI_TEXT       \
  11:../../../libs/libDaisy/src/sys/../../../../libs/libDaisy/src/per/qspi.h ****     __attribute__((section( \
  12:../../../libs/libDaisy/src/sys/../../../../libs/libDaisy/src/per/qspi.h ****         ".qspiflash_text"))) /**< used for reading memory in memory_mapped mode. */
  13:../../../libs/libDaisy/src/sys/../../../../libs/libDaisy/src/per/qspi.h **** #define DSY_QSPI_DATA       \
  14:../../../libs/libDaisy/src/sys/../../../../libs/libDaisy/src/per/qspi.h ****     __attribute__((section( \
  15:../../../libs/libDaisy/src/sys/../../../../libs/libDaisy/src/per/qspi.h ****         ".qspiflash_data"))) /**< used for reading memory in memory_mapped mode. */
  16:../../../libs/libDaisy/src/sys/../../../../libs/libDaisy/src/per/qspi.h **** #define DSY_QSPI_BSS        \
  17:../../../libs/libDaisy/src/sys/../../../../libs/libDaisy/src/per/qspi.h ****     __attribute__((section( \
  18:../../../libs/libDaisy/src/sys/../../../../libs/libDaisy/src/per/qspi.h ****         ".qspiflash_bss"))) /**< used for reading memory in memory_mapped mode. */
  19:../../../libs/libDaisy/src/sys/../../../../libs/libDaisy/src/per/qspi.h **** 
  20:../../../libs/libDaisy/src/sys/../../../../libs/libDaisy/src/per/qspi.h **** namespace daisy
  21:../../../libs/libDaisy/src/sys/../../../../libs/libDaisy/src/per/qspi.h **** {
  22:../../../libs/libDaisy/src/sys/../../../../libs/libDaisy/src/per/qspi.h **** /** @addtogroup serial
  23:../../../libs/libDaisy/src/sys/../../../../libs/libDaisy/src/per/qspi.h **** @{
  24:../../../libs/libDaisy/src/sys/../../../../libs/libDaisy/src/per/qspi.h **** */
  25:../../../libs/libDaisy/src/sys/../../../../libs/libDaisy/src/per/qspi.h **** 
  26:../../../libs/libDaisy/src/sys/../../../../libs/libDaisy/src/per/qspi.h **** /**
  27:../../../libs/libDaisy/src/sys/../../../../libs/libDaisy/src/per/qspi.h ****  Driver for QSPI peripheral to interface with external flash memory. \n
  28:../../../libs/libDaisy/src/sys/../../../../libs/libDaisy/src/per/qspi.h ****     Currently supported QSPI Devices: \n
  29:../../../libs/libDaisy/src/sys/../../../../libs/libDaisy/src/per/qspi.h ****     * IS25LP080D
  30:../../../libs/libDaisy/src/sys/../../../../libs/libDaisy/src/per/qspi.h **** */
  31:../../../libs/libDaisy/src/sys/../../../../libs/libDaisy/src/per/qspi.h **** class QSPIHandle
  32:../../../libs/libDaisy/src/sys/../../../../libs/libDaisy/src/per/qspi.h **** {
  33:../../../libs/libDaisy/src/sys/../../../../libs/libDaisy/src/per/qspi.h ****   public:
  34:../../../libs/libDaisy/src/sys/../../../../libs/libDaisy/src/per/qspi.h ****     enum Result
  35:../../../libs/libDaisy/src/sys/../../../../libs/libDaisy/src/per/qspi.h ****     {
  36:../../../libs/libDaisy/src/sys/../../../../libs/libDaisy/src/per/qspi.h ****         OK = 0,
  37:../../../libs/libDaisy/src/sys/../../../../libs/libDaisy/src/per/qspi.h ****         ERR
  38:../../../libs/libDaisy/src/sys/../../../../libs/libDaisy/src/per/qspi.h ****     };
ARM GAS  C:\Users\matte\AppData\Local\Temp\cczyq38t.s 			page 39


  39:../../../libs/libDaisy/src/sys/../../../../libs/libDaisy/src/per/qspi.h **** 
  40:../../../libs/libDaisy/src/sys/../../../../libs/libDaisy/src/per/qspi.h ****     /** Indicates the current status of the module.
  41:../../../libs/libDaisy/src/sys/../../../../libs/libDaisy/src/per/qspi.h ****          *  Warnings are indicated by a leading W.
  42:../../../libs/libDaisy/src/sys/../../../../libs/libDaisy/src/per/qspi.h ****          *  Errors are indicated by a leading E and cause an immediate exit.
  43:../../../libs/libDaisy/src/sys/../../../../libs/libDaisy/src/per/qspi.h ****          *
  44:../../../libs/libDaisy/src/sys/../../../../libs/libDaisy/src/per/qspi.h ****          *  \param GOOD - No errors have been reported.
  45:../../../libs/libDaisy/src/sys/../../../../libs/libDaisy/src/per/qspi.h ****          *  \param E_HAL_ERROR - HAL code did not return HAL_OK.
  46:../../../libs/libDaisy/src/sys/../../../../libs/libDaisy/src/per/qspi.h ****          *  \param E_SWITCHING_MODES - An error was encountered while switching QSPI peripheral mod
  47:../../../libs/libDaisy/src/sys/../../../../libs/libDaisy/src/per/qspi.h ****          *  \param E_INVALID_MODE - QSPI should not be written to while the program is executing fr
  48:../../../libs/libDaisy/src/sys/../../../../libs/libDaisy/src/per/qspi.h ****          */
  49:../../../libs/libDaisy/src/sys/../../../../libs/libDaisy/src/per/qspi.h ****     enum Status
  50:../../../libs/libDaisy/src/sys/../../../../libs/libDaisy/src/per/qspi.h ****     {
  51:../../../libs/libDaisy/src/sys/../../../../libs/libDaisy/src/per/qspi.h ****         GOOD = 0,
  52:../../../libs/libDaisy/src/sys/../../../../libs/libDaisy/src/per/qspi.h ****         E_HAL_ERROR,
  53:../../../libs/libDaisy/src/sys/../../../../libs/libDaisy/src/per/qspi.h ****         E_SWITCHING_MODES,
  54:../../../libs/libDaisy/src/sys/../../../../libs/libDaisy/src/per/qspi.h ****         E_INVALID_MODE,
  55:../../../libs/libDaisy/src/sys/../../../../libs/libDaisy/src/per/qspi.h ****     };
  56:../../../libs/libDaisy/src/sys/../../../../libs/libDaisy/src/per/qspi.h **** 
  57:../../../libs/libDaisy/src/sys/../../../../libs/libDaisy/src/per/qspi.h ****     /** Configuration structure for interfacing with QSPI Driver */
  58:../../../libs/libDaisy/src/sys/../../../../libs/libDaisy/src/per/qspi.h ****     struct Config
  59:../../../libs/libDaisy/src/sys/../../../../libs/libDaisy/src/per/qspi.h ****     {
  60:../../../libs/libDaisy/src/sys/../../../../libs/libDaisy/src/per/qspi.h ****         /** Flash Devices supported. (Both of these are more-or-less the same, just different sizes
  61:../../../libs/libDaisy/src/sys/../../../../libs/libDaisy/src/per/qspi.h ****         enum Device
  62:../../../libs/libDaisy/src/sys/../../../../libs/libDaisy/src/per/qspi.h ****         {
  63:../../../libs/libDaisy/src/sys/../../../../libs/libDaisy/src/per/qspi.h ****             IS25LP080D,  /**< & */
  64:../../../libs/libDaisy/src/sys/../../../../libs/libDaisy/src/per/qspi.h ****             IS25LP064A,  /**< & */
  65:../../../libs/libDaisy/src/sys/../../../../libs/libDaisy/src/per/qspi.h ****             DEVICE_LAST, /**< & */
  66:../../../libs/libDaisy/src/sys/../../../../libs/libDaisy/src/per/qspi.h ****         };
  67:../../../libs/libDaisy/src/sys/../../../../libs/libDaisy/src/per/qspi.h **** 
  68:../../../libs/libDaisy/src/sys/../../../../libs/libDaisy/src/per/qspi.h ****         /**
  69:../../../libs/libDaisy/src/sys/../../../../libs/libDaisy/src/per/qspi.h ****         Modes of operation.
  70:../../../libs/libDaisy/src/sys/../../../../libs/libDaisy/src/per/qspi.h ****         Memory Mapped mode: QSPI configured so that the QSPI can be
  71:../../../libs/libDaisy/src/sys/../../../../libs/libDaisy/src/per/qspi.h ****         read from starting address 0x90000000. Writing is not
  72:../../../libs/libDaisy/src/sys/../../../../libs/libDaisy/src/per/qspi.h ****         possible in this mode. \n
  73:../../../libs/libDaisy/src/sys/../../../../libs/libDaisy/src/per/qspi.h ****         Indirect Polling mode: Device driver enabled.
  74:../../../libs/libDaisy/src/sys/../../../../libs/libDaisy/src/per/qspi.h ****         */
  75:../../../libs/libDaisy/src/sys/../../../../libs/libDaisy/src/per/qspi.h ****         enum Mode
  76:../../../libs/libDaisy/src/sys/../../../../libs/libDaisy/src/per/qspi.h ****         {
  77:../../../libs/libDaisy/src/sys/../../../../libs/libDaisy/src/per/qspi.h ****             MEMORY_MAPPED,    /**< & */
  78:../../../libs/libDaisy/src/sys/../../../../libs/libDaisy/src/per/qspi.h ****             INDIRECT_POLLING, /**< & */
  79:../../../libs/libDaisy/src/sys/../../../../libs/libDaisy/src/per/qspi.h ****             MODE_LAST,
  80:../../../libs/libDaisy/src/sys/../../../../libs/libDaisy/src/per/qspi.h ****         };
  81:../../../libs/libDaisy/src/sys/../../../../libs/libDaisy/src/per/qspi.h **** 
  82:../../../libs/libDaisy/src/sys/../../../../libs/libDaisy/src/per/qspi.h ****         //SCK,  CE# (active low)
  83:../../../libs/libDaisy/src/sys/../../../../libs/libDaisy/src/per/qspi.h ****         struct
  84:../../../libs/libDaisy/src/sys/../../../../libs/libDaisy/src/per/qspi.h ****         {
  85:../../../libs/libDaisy/src/sys/../../../../libs/libDaisy/src/per/qspi.h ****             Pin io0; /**< & */
  86:../../../libs/libDaisy/src/sys/../../../../libs/libDaisy/src/per/qspi.h ****             Pin io1; /**< & */
  87:../../../libs/libDaisy/src/sys/../../../../libs/libDaisy/src/per/qspi.h ****             Pin io2; /**< & */
  88:../../../libs/libDaisy/src/sys/../../../../libs/libDaisy/src/per/qspi.h ****             Pin io3; /**< & */
  89:../../../libs/libDaisy/src/sys/../../../../libs/libDaisy/src/per/qspi.h ****             Pin clk; /**< & */
  90:../../../libs/libDaisy/src/sys/../../../../libs/libDaisy/src/per/qspi.h ****             Pin ncs; /**< & */
  91:../../../libs/libDaisy/src/sys/../../../../libs/libDaisy/src/per/qspi.h ****         } pin_config;
  92:../../../libs/libDaisy/src/sys/../../../../libs/libDaisy/src/per/qspi.h **** 
  93:../../../libs/libDaisy/src/sys/../../../../libs/libDaisy/src/per/qspi.h ****         Device device;
  94:../../../libs/libDaisy/src/sys/../../../../libs/libDaisy/src/per/qspi.h ****         Mode   mode;
  95:../../../libs/libDaisy/src/sys/../../../../libs/libDaisy/src/per/qspi.h ****     };
ARM GAS  C:\Users\matte\AppData\Local\Temp\cczyq38t.s 			page 40


  96:../../../libs/libDaisy/src/sys/../../../../libs/libDaisy/src/per/qspi.h **** 
  97:../../../libs/libDaisy/src/sys/../../../../libs/libDaisy/src/per/qspi.h ****     /**
  98:../../../libs/libDaisy/src/sys/../../../../libs/libDaisy/src/per/qspi.h ****         Initializes QSPI peripheral, and Resets, and prepares memory for access.
  99:../../../libs/libDaisy/src/sys/../../../../libs/libDaisy/src/per/qspi.h ****         \param config should be populated with the mode, device and pin_config before calling this 
 100:../../../libs/libDaisy/src/sys/../../../../libs/libDaisy/src/per/qspi.h ****         \return Result::OK or Result::ERR
 101:../../../libs/libDaisy/src/sys/../../../../libs/libDaisy/src/per/qspi.h ****         */
 102:../../../libs/libDaisy/src/sys/../../../../libs/libDaisy/src/per/qspi.h ****     Result Init(const Config& config);
 103:../../../libs/libDaisy/src/sys/../../../../libs/libDaisy/src/per/qspi.h **** 
 104:../../../libs/libDaisy/src/sys/../../../../libs/libDaisy/src/per/qspi.h ****     /** Returns the current config. */
 105:../../../libs/libDaisy/src/sys/../../../../libs/libDaisy/src/per/qspi.h ****     const Config& GetConfig() const;
 106:../../../libs/libDaisy/src/sys/../../../../libs/libDaisy/src/per/qspi.h **** 
 107:../../../libs/libDaisy/src/sys/../../../../libs/libDaisy/src/per/qspi.h ****     // Couldn't this just be called before anything else in init? That
 108:../../../libs/libDaisy/src/sys/../../../../libs/libDaisy/src/per/qspi.h ****     // would make manually calling it unnecessary.
 109:../../../libs/libDaisy/src/sys/../../../../libs/libDaisy/src/per/qspi.h ****     /**
 110:../../../libs/libDaisy/src/sys/../../../../libs/libDaisy/src/per/qspi.h ****         Deinitializes the peripheral
 111:../../../libs/libDaisy/src/sys/../../../../libs/libDaisy/src/per/qspi.h ****         This should be called before reinitializing QSPI in a different mode.
 112:../../../libs/libDaisy/src/sys/../../../../libs/libDaisy/src/per/qspi.h ****         \return Result::OK or Result::ERR
 113:../../../libs/libDaisy/src/sys/../../../../libs/libDaisy/src/per/qspi.h ****         */
 114:../../../libs/libDaisy/src/sys/../../../../libs/libDaisy/src/per/qspi.h ****     Result DeInit();
 115:../../../libs/libDaisy/src/sys/../../../../libs/libDaisy/src/per/qspi.h **** 
 116:../../../libs/libDaisy/src/sys/../../../../libs/libDaisy/src/per/qspi.h ****     /**
 117:../../../libs/libDaisy/src/sys/../../../../libs/libDaisy/src/per/qspi.h ****         Writes a single page to to the specified address on the QSPI chip.
 118:../../../libs/libDaisy/src/sys/../../../../libs/libDaisy/src/per/qspi.h ****         For IS25LP*, page size is 256 bytes.
 119:../../../libs/libDaisy/src/sys/../../../../libs/libDaisy/src/per/qspi.h ****         \param address Address to write to
 120:../../../libs/libDaisy/src/sys/../../../../libs/libDaisy/src/per/qspi.h ****         \param size Buffer size
 121:../../../libs/libDaisy/src/sys/../../../../libs/libDaisy/src/per/qspi.h ****         \param buffer Buffer to write
 122:../../../libs/libDaisy/src/sys/../../../../libs/libDaisy/src/per/qspi.h ****         \return Result::OK or Result::ERR
 123:../../../libs/libDaisy/src/sys/../../../../libs/libDaisy/src/per/qspi.h ****         */
 124:../../../libs/libDaisy/src/sys/../../../../libs/libDaisy/src/per/qspi.h ****     Result WritePage(uint32_t address, uint32_t size, uint8_t* buffer);
 125:../../../libs/libDaisy/src/sys/../../../../libs/libDaisy/src/per/qspi.h **** 
 126:../../../libs/libDaisy/src/sys/../../../../libs/libDaisy/src/per/qspi.h ****     /**
 127:../../../libs/libDaisy/src/sys/../../../../libs/libDaisy/src/per/qspi.h ****         Writes data in buffer to to the QSPI. Starting at address to address+size
 128:../../../libs/libDaisy/src/sys/../../../../libs/libDaisy/src/per/qspi.h ****         \param address Address to write to
 129:../../../libs/libDaisy/src/sys/../../../../libs/libDaisy/src/per/qspi.h ****         \param size Buffer size
 130:../../../libs/libDaisy/src/sys/../../../../libs/libDaisy/src/per/qspi.h ****         \param buffer Buffer to write
 131:../../../libs/libDaisy/src/sys/../../../../libs/libDaisy/src/per/qspi.h ****         \return Result::OK or Result::ERR
 132:../../../libs/libDaisy/src/sys/../../../../libs/libDaisy/src/per/qspi.h ****         */
 133:../../../libs/libDaisy/src/sys/../../../../libs/libDaisy/src/per/qspi.h ****     Result Write(uint32_t address, uint32_t size, uint8_t* buffer);
 134:../../../libs/libDaisy/src/sys/../../../../libs/libDaisy/src/per/qspi.h **** 
 135:../../../libs/libDaisy/src/sys/../../../../libs/libDaisy/src/per/qspi.h ****     /**
 136:../../../libs/libDaisy/src/sys/../../../../libs/libDaisy/src/per/qspi.h ****         Erases the area specified on the chip.
 137:../../../libs/libDaisy/src/sys/../../../../libs/libDaisy/src/per/qspi.h ****         Erasures will happen by 4K, 32K or 64K increments.
 138:../../../libs/libDaisy/src/sys/../../../../libs/libDaisy/src/per/qspi.h ****         Smallest erase possible is 4kB at a time. (on IS25LP*)
 139:../../../libs/libDaisy/src/sys/../../../../libs/libDaisy/src/per/qspi.h ****         \param start_addr Address to begin erasing from
 140:../../../libs/libDaisy/src/sys/../../../../libs/libDaisy/src/per/qspi.h ****         \param end_addr  Address to stop erasing at
 141:../../../libs/libDaisy/src/sys/../../../../libs/libDaisy/src/per/qspi.h ****         \return Result::OK or Result::ERR
 142:../../../libs/libDaisy/src/sys/../../../../libs/libDaisy/src/per/qspi.h ****         */
 143:../../../libs/libDaisy/src/sys/../../../../libs/libDaisy/src/per/qspi.h ****     Result Erase(uint32_t start_addr, uint32_t end_addr);
 144:../../../libs/libDaisy/src/sys/../../../../libs/libDaisy/src/per/qspi.h **** 
 145:../../../libs/libDaisy/src/sys/../../../../libs/libDaisy/src/per/qspi.h ****     /**
 146:../../../libs/libDaisy/src/sys/../../../../libs/libDaisy/src/per/qspi.h ****          Erases a single sector of the chip.
 147:../../../libs/libDaisy/src/sys/../../../../libs/libDaisy/src/per/qspi.h ****         TODO: Document the size of this function.
 148:../../../libs/libDaisy/src/sys/../../../../libs/libDaisy/src/per/qspi.h ****         \param address Address of sector to erase
 149:../../../libs/libDaisy/src/sys/../../../../libs/libDaisy/src/per/qspi.h ****         \return Result::OK or Result::ERR
 150:../../../libs/libDaisy/src/sys/../../../../libs/libDaisy/src/per/qspi.h ****         */
 151:../../../libs/libDaisy/src/sys/../../../../libs/libDaisy/src/per/qspi.h ****     Result EraseSector(uint32_t address);
 152:../../../libs/libDaisy/src/sys/../../../../libs/libDaisy/src/per/qspi.h **** 
ARM GAS  C:\Users\matte\AppData\Local\Temp\cczyq38t.s 			page 41


 153:../../../libs/libDaisy/src/sys/../../../../libs/libDaisy/src/per/qspi.h ****     /** Returns the current class status. Useful for debugging.
 154:../../../libs/libDaisy/src/sys/../../../../libs/libDaisy/src/per/qspi.h ****      *  \returns Status
 155:../../../libs/libDaisy/src/sys/../../../../libs/libDaisy/src/per/qspi.h ****      */
 156:../../../libs/libDaisy/src/sys/../../../../libs/libDaisy/src/per/qspi.h ****     Status GetStatus();
 157:../../../libs/libDaisy/src/sys/../../../../libs/libDaisy/src/per/qspi.h **** 
 158:../../../libs/libDaisy/src/sys/../../../../libs/libDaisy/src/per/qspi.h ****     /** Returns a pointer to the actual memory used
 159:../../../libs/libDaisy/src/sys/../../../../libs/libDaisy/src/per/qspi.h ****      *  The memory at this address is read-only
 160:../../../libs/libDaisy/src/sys/../../../../libs/libDaisy/src/per/qspi.h ****      *  to write to it use the Write function.
 161:../../../libs/libDaisy/src/sys/../../../../libs/libDaisy/src/per/qspi.h ****      *
 162:../../../libs/libDaisy/src/sys/../../../../libs/libDaisy/src/per/qspi.h ****      *  \param offset returns the pointer starting this
 163:../../../libs/libDaisy/src/sys/../../../../libs/libDaisy/src/per/qspi.h ****      *                many bytes into the memory
 164:../../../libs/libDaisy/src/sys/../../../../libs/libDaisy/src/per/qspi.h ****     */
 165:../../../libs/libDaisy/src/sys/../../../../libs/libDaisy/src/per/qspi.h ****     void* GetData(uint32_t offset = 0);
 166:../../../libs/libDaisy/src/sys/../../../../libs/libDaisy/src/per/qspi.h **** 
 167:../../../libs/libDaisy/src/sys/../../../../libs/libDaisy/src/per/qspi.h ****     QSPIHandle() : pimpl_(nullptr) {}
 1074              		.loc 13 167 5 view .LVU253
 1075              		.loc 13 167 5 is_stmt 0 view .LVU254
 1076              	.LBE427:
 1077              	.LBB430:
 1078              	.LBI430:
  58:../../../libs/libDaisy/src/sys/../../../../libs/libDaisy/src/per/qspi.h ****     {
 1079              		.loc 13 58 12 is_stmt 1 view .LVU255
 1080              	.LBB431:
 1081              	.LBI431:
  84:../../../libs/libDaisy/src/sys/../../../../libs/libDaisy/src/per/qspi.h ****             Pin io0; /**< & */
 1082              		.loc 13 84 9 view .LVU256
 1083              	.LBB432:
 1084              	.LBI432:
 1085              		.file 14 "../../../libs/libDaisy/src/daisy_core.h"
   1:../../../libs/libDaisy/src/daisy_core.h **** #pragma once
   2:../../../libs/libDaisy/src/daisy_core.h **** #ifndef DSY_CORE_HW_H
   3:../../../libs/libDaisy/src/daisy_core.h **** #define DSY_CORE_HW_H /**< & */
   4:../../../libs/libDaisy/src/daisy_core.h **** #include <stdint.h>
   5:../../../libs/libDaisy/src/daisy_core.h **** #include <stdlib.h>
   6:../../../libs/libDaisy/src/daisy_core.h **** 
   7:../../../libs/libDaisy/src/daisy_core.h **** #if defined(_MSC_VER)
   8:../../../libs/libDaisy/src/daisy_core.h **** #define FORCE_INLINE __forceinline /**< & */
   9:../../../libs/libDaisy/src/daisy_core.h **** #elif defined(__clang__)
  10:../../../libs/libDaisy/src/daisy_core.h **** #define FORCE_INLINE inline __attribute__((always_inline)) /**< & */
  11:../../../libs/libDaisy/src/daisy_core.h **** #pragma clang diagnostic ignored "-Wduplicate-decl-specifier"
  12:../../../libs/libDaisy/src/daisy_core.h **** #elif defined(__GNUC__)
  13:../../../libs/libDaisy/src/daisy_core.h **** #define FORCE_INLINE inline __attribute__((always_inline)) /**< & */
  14:../../../libs/libDaisy/src/daisy_core.h **** #else
  15:../../../libs/libDaisy/src/daisy_core.h **** #error unknown compiler
  16:../../../libs/libDaisy/src/daisy_core.h **** #endif
  17:../../../libs/libDaisy/src/daisy_core.h **** 
  18:../../../libs/libDaisy/src/daisy_core.h **** /** @addtogroup utility
  19:../../../libs/libDaisy/src/daisy_core.h ****     @{
  20:../../../libs/libDaisy/src/daisy_core.h **** */
  21:../../../libs/libDaisy/src/daisy_core.h **** 
  22:../../../libs/libDaisy/src/daisy_core.h **** /** Macro for area of memory that is configured as cacheless
  23:../../../libs/libDaisy/src/daisy_core.h **** This should be used primarily for DMA buffers, and the like.
  24:../../../libs/libDaisy/src/daisy_core.h **** */
  25:../../../libs/libDaisy/src/daisy_core.h **** #define DMA_BUFFER_MEM_SECTION __attribute__((section(".sram1_bss")))
  26:../../../libs/libDaisy/src/daisy_core.h **** /** 
  27:../../../libs/libDaisy/src/daisy_core.h **** THE DTCM RAM section is also non-cached. However, is not suitable 
  28:../../../libs/libDaisy/src/daisy_core.h **** for DMA transfers. Performance is on par with internal SRAM w/ 
ARM GAS  C:\Users\matte\AppData\Local\Temp\cczyq38t.s 			page 42


  29:../../../libs/libDaisy/src/daisy_core.h **** cache enabled.
  30:../../../libs/libDaisy/src/daisy_core.h **** */
  31:../../../libs/libDaisy/src/daisy_core.h **** #define DTCM_MEM_SECTION __attribute__((section(".dtcmram_bss")))
  32:../../../libs/libDaisy/src/daisy_core.h **** 
  33:../../../libs/libDaisy/src/daisy_core.h **** #define FBIPMAX 0.999985f             /**< close to 1.0f-LSB at 16 bit */
  34:../../../libs/libDaisy/src/daisy_core.h **** #define FBIPMIN (-FBIPMAX)            /**< - (1 - LSB) */
  35:../../../libs/libDaisy/src/daisy_core.h **** #define U82F_SCALE 0.0078740f         /**< 1 / 127 */
  36:../../../libs/libDaisy/src/daisy_core.h **** #define F2U8_SCALE 127.0f             /**< 128 - 1 */
  37:../../../libs/libDaisy/src/daisy_core.h **** #define S82F_SCALE 0.0078125f         /**< 1 / (2**7) */
  38:../../../libs/libDaisy/src/daisy_core.h **** #define F2S8_SCALE 127.0f             /**< (2 ** 7) - 1 */
  39:../../../libs/libDaisy/src/daisy_core.h **** #define S162F_SCALE 3.0517578125e-05f /**< 1 / (2** 15) */
  40:../../../libs/libDaisy/src/daisy_core.h **** #define F2S16_SCALE 32767.0f          /**< (2 ** 15) - 1 */
  41:../../../libs/libDaisy/src/daisy_core.h **** #define F2S24_SCALE 8388608.0f        /**< 2 ** 23 */
  42:../../../libs/libDaisy/src/daisy_core.h **** #define S242F_SCALE 1.192092896e-07f  /**< 1 / (2 ** 23) */
  43:../../../libs/libDaisy/src/daisy_core.h **** #define S24SIGN 0x800000              /**< 2 ** 23 */
  44:../../../libs/libDaisy/src/daisy_core.h **** #define S322F_SCALE 4.6566129e-10f    /**< 1 / (2** 31) */
  45:../../../libs/libDaisy/src/daisy_core.h **** #define F2S32_SCALE 2147483647.f      /**< (2 ** 31) - 1 */
  46:../../../libs/libDaisy/src/daisy_core.h **** 
  47:../../../libs/libDaisy/src/daisy_core.h **** 
  48:../../../libs/libDaisy/src/daisy_core.h **** /** shorthand macro for simplifying the reading of the left 
  49:../../../libs/libDaisy/src/daisy_core.h ****  *  channel of a non-interleaved output buffer named out */
  50:../../../libs/libDaisy/src/daisy_core.h **** #define OUT_L out[0]
  51:../../../libs/libDaisy/src/daisy_core.h **** 
  52:../../../libs/libDaisy/src/daisy_core.h **** /** shorthand macro for simplifying the reading of the right 
  53:../../../libs/libDaisy/src/daisy_core.h ****  *  channel of a non-interleaved output buffer named out */
  54:../../../libs/libDaisy/src/daisy_core.h **** #define OUT_R out[1]
  55:../../../libs/libDaisy/src/daisy_core.h **** 
  56:../../../libs/libDaisy/src/daisy_core.h **** /** shorthand macro for simplifying the reading of the left 
  57:../../../libs/libDaisy/src/daisy_core.h ****  *  channel of a non-interleaved input buffer named in */
  58:../../../libs/libDaisy/src/daisy_core.h **** #define IN_L in[0]
  59:../../../libs/libDaisy/src/daisy_core.h **** 
  60:../../../libs/libDaisy/src/daisy_core.h **** /** shorthand macro for simplifying the reading of the right 
  61:../../../libs/libDaisy/src/daisy_core.h ****  *  channel of a non-interleaved input buffer named in */
  62:../../../libs/libDaisy/src/daisy_core.h **** #define IN_R in[1]
  63:../../../libs/libDaisy/src/daisy_core.h **** 
  64:../../../libs/libDaisy/src/daisy_core.h **** /** 
  65:../../../libs/libDaisy/src/daisy_core.h ****     Computes cube.
  66:../../../libs/libDaisy/src/daisy_core.h ****     \param x Number to be cubed
  67:../../../libs/libDaisy/src/daisy_core.h ****     \return x ^ 3
  68:../../../libs/libDaisy/src/daisy_core.h **** */
  69:../../../libs/libDaisy/src/daisy_core.h **** FORCE_INLINE float cube(float x)
  70:../../../libs/libDaisy/src/daisy_core.h **** {
  71:../../../libs/libDaisy/src/daisy_core.h ****     return (x * x) * x;
  72:../../../libs/libDaisy/src/daisy_core.h **** }
  73:../../../libs/libDaisy/src/daisy_core.h **** 
  74:../../../libs/libDaisy/src/daisy_core.h **** /** 
  75:../../../libs/libDaisy/src/daisy_core.h ****     Converts unsigned 8-bit to float
  76:../../../libs/libDaisy/src/daisy_core.h ****     \param x Number to be scaled.
  77:../../../libs/libDaisy/src/daisy_core.h ****     \return Scaled number.
  78:../../../libs/libDaisy/src/daisy_core.h **** */
  79:../../../libs/libDaisy/src/daisy_core.h **** FORCE_INLINE float u82f(uint8_t x)
  80:../../../libs/libDaisy/src/daisy_core.h **** {
  81:../../../libs/libDaisy/src/daisy_core.h ****     return ((float)x - 127.f) * U82F_SCALE;
  82:../../../libs/libDaisy/src/daisy_core.h **** }
  83:../../../libs/libDaisy/src/daisy_core.h **** 
  84:../../../libs/libDaisy/src/daisy_core.h **** /**
  85:../../../libs/libDaisy/src/daisy_core.h ****     Converts float to unsigned 8-bit
ARM GAS  C:\Users\matte\AppData\Local\Temp\cczyq38t.s 			page 43


  86:../../../libs/libDaisy/src/daisy_core.h **** */
  87:../../../libs/libDaisy/src/daisy_core.h **** FORCE_INLINE uint8_t f2u8(float x)
  88:../../../libs/libDaisy/src/daisy_core.h **** {
  89:../../../libs/libDaisy/src/daisy_core.h ****     x = x <= FBIPMIN ? FBIPMIN : x;
  90:../../../libs/libDaisy/src/daisy_core.h ****     x = x >= FBIPMAX ? FBIPMAX : x;
  91:../../../libs/libDaisy/src/daisy_core.h ****     return (uint8_t)((x * F2U8_SCALE) + F2U8_SCALE);
  92:../../../libs/libDaisy/src/daisy_core.h **** }
  93:../../../libs/libDaisy/src/daisy_core.h **** 
  94:../../../libs/libDaisy/src/daisy_core.h **** 
  95:../../../libs/libDaisy/src/daisy_core.h **** /** 
  96:../../../libs/libDaisy/src/daisy_core.h ****     Converts Signed 8-bit to float
  97:../../../libs/libDaisy/src/daisy_core.h ****     \param x Number to be scaled.
  98:../../../libs/libDaisy/src/daisy_core.h ****     \return Scaled number.
  99:../../../libs/libDaisy/src/daisy_core.h **** */
 100:../../../libs/libDaisy/src/daisy_core.h **** FORCE_INLINE float s82f(int8_t x)
 101:../../../libs/libDaisy/src/daisy_core.h **** {
 102:../../../libs/libDaisy/src/daisy_core.h ****     return (float)x * S82F_SCALE;
 103:../../../libs/libDaisy/src/daisy_core.h **** }
 104:../../../libs/libDaisy/src/daisy_core.h **** 
 105:../../../libs/libDaisy/src/daisy_core.h **** /**
 106:../../../libs/libDaisy/src/daisy_core.h ****     Converts float to Signed 8-bit
 107:../../../libs/libDaisy/src/daisy_core.h **** */
 108:../../../libs/libDaisy/src/daisy_core.h **** FORCE_INLINE int8_t f2s8(float x)
 109:../../../libs/libDaisy/src/daisy_core.h **** {
 110:../../../libs/libDaisy/src/daisy_core.h ****     x = x <= FBIPMIN ? FBIPMIN : x;
 111:../../../libs/libDaisy/src/daisy_core.h ****     x = x >= FBIPMAX ? FBIPMAX : x;
 112:../../../libs/libDaisy/src/daisy_core.h ****     return (int32_t)(x * F2S8_SCALE);
 113:../../../libs/libDaisy/src/daisy_core.h **** }
 114:../../../libs/libDaisy/src/daisy_core.h **** 
 115:../../../libs/libDaisy/src/daisy_core.h **** /** 
 116:../../../libs/libDaisy/src/daisy_core.h ****     Converts Signed 16-bit to float
 117:../../../libs/libDaisy/src/daisy_core.h ****     \param x Number to be scaled.
 118:../../../libs/libDaisy/src/daisy_core.h ****     \return Scaled number.
 119:../../../libs/libDaisy/src/daisy_core.h **** */
 120:../../../libs/libDaisy/src/daisy_core.h **** FORCE_INLINE float s162f(int16_t x)
 121:../../../libs/libDaisy/src/daisy_core.h **** {
 122:../../../libs/libDaisy/src/daisy_core.h ****     return (float)x * S162F_SCALE;
 123:../../../libs/libDaisy/src/daisy_core.h **** }
 124:../../../libs/libDaisy/src/daisy_core.h **** 
 125:../../../libs/libDaisy/src/daisy_core.h **** /**
 126:../../../libs/libDaisy/src/daisy_core.h ****     Converts float to Signed 16-bit
 127:../../../libs/libDaisy/src/daisy_core.h **** */
 128:../../../libs/libDaisy/src/daisy_core.h **** FORCE_INLINE int16_t f2s16(float x)
 129:../../../libs/libDaisy/src/daisy_core.h **** {
 130:../../../libs/libDaisy/src/daisy_core.h ****     x = x <= FBIPMIN ? FBIPMIN : x;
 131:../../../libs/libDaisy/src/daisy_core.h ****     x = x >= FBIPMAX ? FBIPMAX : x;
 132:../../../libs/libDaisy/src/daisy_core.h ****     return (int32_t)(x * F2S16_SCALE);
 133:../../../libs/libDaisy/src/daisy_core.h **** }
 134:../../../libs/libDaisy/src/daisy_core.h **** 
 135:../../../libs/libDaisy/src/daisy_core.h **** /**
 136:../../../libs/libDaisy/src/daisy_core.h ****     Converts Signed 24-bit to float
 137:../../../libs/libDaisy/src/daisy_core.h ****  */
 138:../../../libs/libDaisy/src/daisy_core.h **** FORCE_INLINE float s242f(int32_t x)
 139:../../../libs/libDaisy/src/daisy_core.h **** {
 140:../../../libs/libDaisy/src/daisy_core.h ****     x = (x ^ S24SIGN) - S24SIGN; //sign extend aka ((x<<8)>>8)
 141:../../../libs/libDaisy/src/daisy_core.h ****     return (float)x * S242F_SCALE;
 142:../../../libs/libDaisy/src/daisy_core.h **** }
ARM GAS  C:\Users\matte\AppData\Local\Temp\cczyq38t.s 			page 44


 143:../../../libs/libDaisy/src/daisy_core.h **** /**
 144:../../../libs/libDaisy/src/daisy_core.h ****     Converts float to Signed 24-bit
 145:../../../libs/libDaisy/src/daisy_core.h ****  */
 146:../../../libs/libDaisy/src/daisy_core.h **** FORCE_INLINE int32_t f2s24(float x)
 147:../../../libs/libDaisy/src/daisy_core.h **** {
 148:../../../libs/libDaisy/src/daisy_core.h ****     x = x <= FBIPMIN ? FBIPMIN : x;
 149:../../../libs/libDaisy/src/daisy_core.h ****     x = x >= FBIPMAX ? FBIPMAX : x;
 150:../../../libs/libDaisy/src/daisy_core.h ****     return (int32_t)(x * F2S24_SCALE);
 151:../../../libs/libDaisy/src/daisy_core.h **** }
 152:../../../libs/libDaisy/src/daisy_core.h **** 
 153:../../../libs/libDaisy/src/daisy_core.h **** /**
 154:../../../libs/libDaisy/src/daisy_core.h ****     Converts Signed 32-bit to float
 155:../../../libs/libDaisy/src/daisy_core.h ****  */
 156:../../../libs/libDaisy/src/daisy_core.h **** FORCE_INLINE float s322f(int32_t x)
 157:../../../libs/libDaisy/src/daisy_core.h **** {
 158:../../../libs/libDaisy/src/daisy_core.h ****     return (float)x * S322F_SCALE;
 159:../../../libs/libDaisy/src/daisy_core.h **** }
 160:../../../libs/libDaisy/src/daisy_core.h **** /**
 161:../../../libs/libDaisy/src/daisy_core.h ****     Converts float to Signed 24-bit
 162:../../../libs/libDaisy/src/daisy_core.h ****  */
 163:../../../libs/libDaisy/src/daisy_core.h **** FORCE_INLINE int32_t f2s32(float x)
 164:../../../libs/libDaisy/src/daisy_core.h **** {
 165:../../../libs/libDaisy/src/daisy_core.h ****     x = x <= FBIPMIN ? FBIPMIN : x;
 166:../../../libs/libDaisy/src/daisy_core.h ****     x = x >= FBIPMAX ? FBIPMAX : x;
 167:../../../libs/libDaisy/src/daisy_core.h ****     return (int32_t)(x * F2S32_SCALE);
 168:../../../libs/libDaisy/src/daisy_core.h **** }
 169:../../../libs/libDaisy/src/daisy_core.h **** 
 170:../../../libs/libDaisy/src/daisy_core.h **** #ifdef __cplusplus
 171:../../../libs/libDaisy/src/daisy_core.h **** 
 172:../../../libs/libDaisy/src/daisy_core.h **** namespace daisy
 173:../../../libs/libDaisy/src/daisy_core.h **** {
 174:../../../libs/libDaisy/src/daisy_core.h **** /** @brief GPIO Port names */
 175:../../../libs/libDaisy/src/daisy_core.h **** enum GPIOPort
 176:../../../libs/libDaisy/src/daisy_core.h **** {
 177:../../../libs/libDaisy/src/daisy_core.h ****     PORTA, /**< Port A */
 178:../../../libs/libDaisy/src/daisy_core.h ****     PORTB, /**< Port B */
 179:../../../libs/libDaisy/src/daisy_core.h ****     PORTC, /**< Port C */
 180:../../../libs/libDaisy/src/daisy_core.h ****     PORTD, /**< Port D */
 181:../../../libs/libDaisy/src/daisy_core.h ****     PORTE, /**< Port E */
 182:../../../libs/libDaisy/src/daisy_core.h ****     PORTF, /**< Port F */
 183:../../../libs/libDaisy/src/daisy_core.h ****     PORTG, /**< Port G */
 184:../../../libs/libDaisy/src/daisy_core.h ****     PORTH, /**< Port H */
 185:../../../libs/libDaisy/src/daisy_core.h ****     PORTI, /**< Port I */
 186:../../../libs/libDaisy/src/daisy_core.h ****     PORTJ, /**< Port J */
 187:../../../libs/libDaisy/src/daisy_core.h ****     PORTK, /**< Port K */
 188:../../../libs/libDaisy/src/daisy_core.h ****     PORTX, /**< Used as a dummy port to signal an invalid pin. */
 189:../../../libs/libDaisy/src/daisy_core.h **** };
 190:../../../libs/libDaisy/src/daisy_core.h **** 
 191:../../../libs/libDaisy/src/daisy_core.h **** /** @brief representation of hardware port/pin combination */
 192:../../../libs/libDaisy/src/daisy_core.h **** struct Pin
 193:../../../libs/libDaisy/src/daisy_core.h **** {
 194:../../../libs/libDaisy/src/daisy_core.h ****     GPIOPort port;
 195:../../../libs/libDaisy/src/daisy_core.h ****     uint8_t  pin;
 196:../../../libs/libDaisy/src/daisy_core.h **** 
 197:../../../libs/libDaisy/src/daisy_core.h ****     /** @brief Constructor creates a valid pin. 
 198:../../../libs/libDaisy/src/daisy_core.h ****      *  @param pt GPIOPort between PA, and PK corresponding to STM32 Port.
 199:../../../libs/libDaisy/src/daisy_core.h ****      *  @param pn pin number in range of 0-15
ARM GAS  C:\Users\matte\AppData\Local\Temp\cczyq38t.s 			page 45


 200:../../../libs/libDaisy/src/daisy_core.h ****     */
 201:../../../libs/libDaisy/src/daisy_core.h ****     constexpr Pin(const GPIOPort pt, const uint8_t pn) : port(pt), pin(pn) {}
 202:../../../libs/libDaisy/src/daisy_core.h **** 
 203:../../../libs/libDaisy/src/daisy_core.h ****     /** @brief Basic Constructor creates an invalid Pin object */
 204:../../../libs/libDaisy/src/daisy_core.h ****     constexpr Pin() : port(PORTX), pin(255) {}
 1086              		.loc 14 204 15 view .LVU257
 1087              		.loc 14 204 15 is_stmt 0 view .LVU258
 1088              	.LBE432:
 1089              	.LBB433:
 1090              	.LBI433:
 1091              		.loc 14 204 15 is_stmt 1 view .LVU259
 1092              		.loc 14 204 15 is_stmt 0 view .LVU260
 1093              	.LBE433:
 1094              	.LBB434:
 1095              	.LBI434:
 1096              		.loc 14 204 15 is_stmt 1 view .LVU261
 1097              		.loc 14 204 15 is_stmt 0 view .LVU262
 1098              	.LBE434:
 1099              	.LBB435:
 1100              	.LBI435:
 1101              		.loc 14 204 15 is_stmt 1 view .LVU263
 1102              		.loc 14 204 15 is_stmt 0 view .LVU264
 1103              	.LBE435:
 1104              	.LBB436:
 1105              	.LBI436:
 1106              		.loc 14 204 15 is_stmt 1 view .LVU265
 1107              		.loc 14 204 15 is_stmt 0 view .LVU266
 1108              	.LBE436:
 1109              	.LBB437:
 1110              	.LBI437:
 1111              		.loc 14 204 15 is_stmt 1 view .LVU267
 1112              		.loc 14 204 15 is_stmt 0 view .LVU268
 1113              	.LBE437:
 1114              	.LBE431:
 1115              	.LBE430:
 1116              	.LBB438:
 1117              	.LBI438:
  87:../../../libs/libDaisy/src/sys/../../../../libs/libDaisy/src/hid/audio.h ****     ~AudioHandle() {}
 1118              		.loc 6 87 5 is_stmt 1 view .LVU269
  87:../../../libs/libDaisy/src/sys/../../../../libs/libDaisy/src/hid/audio.h ****     ~AudioHandle() {}
 1119              		.loc 6 87 5 is_stmt 0 view .LVU270
 1120              	.LBE438:
 1121              	.LBB441:
 1122              	.LBI441:
 109:../../../libs/libDaisy/src/sys/../../../../libs/libDaisy/src/per/adc.h ****     ~AdcHandle() {}
 1123              		.loc 5 109 5 is_stmt 1 view .LVU271
 109:../../../libs/libDaisy/src/sys/../../../../libs/libDaisy/src/per/adc.h ****     ~AdcHandle() {}
 1124              		.loc 5 109 5 is_stmt 0 view .LVU272
 1125              	.LBE441:
 1126              	.LBB442:
 1127              	.LBI442:
 1128              		.file 15 "../../../libs/libDaisy/src/sys/../../../../libs/libDaisy/src/per/dac.h"
   1:../../../libs/libDaisy/src/sys/../../../../libs/libDaisy/src/per/dac.h **** #pragma once
   2:../../../libs/libDaisy/src/sys/../../../../libs/libDaisy/src/per/dac.h **** #ifndef DSY_DAC_H
   3:../../../libs/libDaisy/src/sys/../../../../libs/libDaisy/src/per/dac.h **** #define DSY_DAC_H
   4:../../../libs/libDaisy/src/sys/../../../../libs/libDaisy/src/per/dac.h **** #include "stm32h7xx_hal.h"
   5:../../../libs/libDaisy/src/sys/../../../../libs/libDaisy/src/per/dac.h **** #include "daisy_core.h"
ARM GAS  C:\Users\matte\AppData\Local\Temp\cczyq38t.s 			page 46


   6:../../../libs/libDaisy/src/sys/../../../../libs/libDaisy/src/per/dac.h **** 
   7:../../../libs/libDaisy/src/sys/../../../../libs/libDaisy/src/per/dac.h **** namespace daisy
   8:../../../libs/libDaisy/src/sys/../../../../libs/libDaisy/src/per/dac.h **** {
   9:../../../libs/libDaisy/src/sys/../../../../libs/libDaisy/src/per/dac.h **** /** @brief DAC handle for Built-in DAC Peripheral 
  10:../../../libs/libDaisy/src/sys/../../../../libs/libDaisy/src/per/dac.h ****  *  @ingroup per_analog
  11:../../../libs/libDaisy/src/sys/../../../../libs/libDaisy/src/per/dac.h ****  ** 
  12:../../../libs/libDaisy/src/sys/../../../../libs/libDaisy/src/per/dac.h ****  ** For now only Normal Mode is supported,
  13:../../../libs/libDaisy/src/sys/../../../../libs/libDaisy/src/per/dac.h ****  ** Sample and hold mode provides reduced power consumption, but requires a bit more setup.
  14:../../../libs/libDaisy/src/sys/../../../../libs/libDaisy/src/per/dac.h ****  **
  15:../../../libs/libDaisy/src/sys/../../../../libs/libDaisy/src/per/dac.h ****  ** For now connecting the DAC through other internal peripherals is also not supported.
  16:../../../libs/libDaisy/src/sys/../../../../libs/libDaisy/src/per/dac.h ****  **
  17:../../../libs/libDaisy/src/sys/../../../../libs/libDaisy/src/per/dac.h ****  ** Since the DAC channels have dedicated pins we don't need to pass in a pin config like with
  18:../../../libs/libDaisy/src/sys/../../../../libs/libDaisy/src/per/dac.h ****  ** other modules. However, it is still important to not try to use the DAC pins for anything else.
  19:../../../libs/libDaisy/src/sys/../../../../libs/libDaisy/src/per/dac.h ****  ** DAC Channel 1 is on PA4, and DAC Channel 2 is on PA5
  20:../../../libs/libDaisy/src/sys/../../../../libs/libDaisy/src/per/dac.h ****  ***/
  21:../../../libs/libDaisy/src/sys/../../../../libs/libDaisy/src/per/dac.h **** class DacHandle
  22:../../../libs/libDaisy/src/sys/../../../../libs/libDaisy/src/per/dac.h **** {
  23:../../../libs/libDaisy/src/sys/../../../../libs/libDaisy/src/per/dac.h ****   public:
  24:../../../libs/libDaisy/src/sys/../../../../libs/libDaisy/src/per/dac.h ****     /** Return Values for the DacHandle class */
  25:../../../libs/libDaisy/src/sys/../../../../libs/libDaisy/src/per/dac.h ****     enum class Result
  26:../../../libs/libDaisy/src/sys/../../../../libs/libDaisy/src/per/dac.h ****     {
  27:../../../libs/libDaisy/src/sys/../../../../libs/libDaisy/src/per/dac.h ****         OK,
  28:../../../libs/libDaisy/src/sys/../../../../libs/libDaisy/src/per/dac.h ****         ERR,
  29:../../../libs/libDaisy/src/sys/../../../../libs/libDaisy/src/per/dac.h ****     };
  30:../../../libs/libDaisy/src/sys/../../../../libs/libDaisy/src/per/dac.h **** 
  31:../../../libs/libDaisy/src/sys/../../../../libs/libDaisy/src/per/dac.h ****     /** Selects which channel(s) will be configured for use. */
  32:../../../libs/libDaisy/src/sys/../../../../libs/libDaisy/src/per/dac.h ****     enum class Channel
  33:../../../libs/libDaisy/src/sys/../../../../libs/libDaisy/src/per/dac.h ****     {
  34:../../../libs/libDaisy/src/sys/../../../../libs/libDaisy/src/per/dac.h ****         ONE,
  35:../../../libs/libDaisy/src/sys/../../../../libs/libDaisy/src/per/dac.h ****         TWO,
  36:../../../libs/libDaisy/src/sys/../../../../libs/libDaisy/src/per/dac.h ****         BOTH,
  37:../../../libs/libDaisy/src/sys/../../../../libs/libDaisy/src/per/dac.h ****     };
  38:../../../libs/libDaisy/src/sys/../../../../libs/libDaisy/src/per/dac.h **** 
  39:../../../libs/libDaisy/src/sys/../../../../libs/libDaisy/src/per/dac.h ****     /** Sets the Mode for the DAC channels.
  40:../../../libs/libDaisy/src/sys/../../../../libs/libDaisy/src/per/dac.h ****      **
  41:../../../libs/libDaisy/src/sys/../../../../libs/libDaisy/src/per/dac.h ****      ** Polling mode uses the blocking mode to transmit a single value at a time.
  42:../../../libs/libDaisy/src/sys/../../../../libs/libDaisy/src/per/dac.h ****      **
  43:../../../libs/libDaisy/src/sys/../../../../libs/libDaisy/src/per/dac.h ****      ** DMA mode uses a buffer, and periodically transmits it triggering a 
  44:../../../libs/libDaisy/src/sys/../../../../libs/libDaisy/src/per/dac.h ****      ** callback to fill the buffer when it is ready for more samples.
  45:../../../libs/libDaisy/src/sys/../../../../libs/libDaisy/src/per/dac.h ****      ***/
  46:../../../libs/libDaisy/src/sys/../../../../libs/libDaisy/src/per/dac.h ****     enum class Mode
  47:../../../libs/libDaisy/src/sys/../../../../libs/libDaisy/src/per/dac.h ****     {
  48:../../../libs/libDaisy/src/sys/../../../../libs/libDaisy/src/per/dac.h ****         POLLING,
  49:../../../libs/libDaisy/src/sys/../../../../libs/libDaisy/src/per/dac.h ****         DMA,
  50:../../../libs/libDaisy/src/sys/../../../../libs/libDaisy/src/per/dac.h ****     };
  51:../../../libs/libDaisy/src/sys/../../../../libs/libDaisy/src/per/dac.h **** 
  52:../../../libs/libDaisy/src/sys/../../../../libs/libDaisy/src/per/dac.h ****     /** Sets the number of bits per sample transmitted out of the DAC.
  53:../../../libs/libDaisy/src/sys/../../../../libs/libDaisy/src/per/dac.h ****      ** The output range will be: 0V - VDDA
  54:../../../libs/libDaisy/src/sys/../../../../libs/libDaisy/src/per/dac.h ****      ** The resolution will be roughly: bitdepth / (VDDA - 0V) 
  55:../../../libs/libDaisy/src/sys/../../../../libs/libDaisy/src/per/dac.h ****      ***/
  56:../../../libs/libDaisy/src/sys/../../../../libs/libDaisy/src/per/dac.h ****     enum class BitDepth
  57:../../../libs/libDaisy/src/sys/../../../../libs/libDaisy/src/per/dac.h ****     {
  58:../../../libs/libDaisy/src/sys/../../../../libs/libDaisy/src/per/dac.h ****         BITS_8,
  59:../../../libs/libDaisy/src/sys/../../../../libs/libDaisy/src/per/dac.h ****         BITS_12
  60:../../../libs/libDaisy/src/sys/../../../../libs/libDaisy/src/per/dac.h ****     };
  61:../../../libs/libDaisy/src/sys/../../../../libs/libDaisy/src/per/dac.h **** 
  62:../../../libs/libDaisy/src/sys/../../../../libs/libDaisy/src/per/dac.h ****     /** Sets whether the DAC output is buffered for higher drive ability. */
ARM GAS  C:\Users\matte\AppData\Local\Temp\cczyq38t.s 			page 47


  63:../../../libs/libDaisy/src/sys/../../../../libs/libDaisy/src/per/dac.h ****     enum class BufferState
  64:../../../libs/libDaisy/src/sys/../../../../libs/libDaisy/src/per/dac.h ****     {
  65:../../../libs/libDaisy/src/sys/../../../../libs/libDaisy/src/per/dac.h ****         ENABLED,
  66:../../../libs/libDaisy/src/sys/../../../../libs/libDaisy/src/per/dac.h ****         DISABLED,
  67:../../../libs/libDaisy/src/sys/../../../../libs/libDaisy/src/per/dac.h ****     };
  68:../../../libs/libDaisy/src/sys/../../../../libs/libDaisy/src/per/dac.h **** 
  69:../../../libs/libDaisy/src/sys/../../../../libs/libDaisy/src/per/dac.h ****     /** Configuration structure for initializing the DAC structure. */
  70:../../../libs/libDaisy/src/sys/../../../../libs/libDaisy/src/per/dac.h ****     struct Config
  71:../../../libs/libDaisy/src/sys/../../../../libs/libDaisy/src/per/dac.h ****     {
  72:../../../libs/libDaisy/src/sys/../../../../libs/libDaisy/src/per/dac.h ****         /** Target Samplerate in Hz used to configure the internal 
  73:../../../libs/libDaisy/src/sys/../../../../libs/libDaisy/src/per/dac.h ****          ** timebase for DMA mode. Does nothing in POLLING mode.
  74:../../../libs/libDaisy/src/sys/../../../../libs/libDaisy/src/per/dac.h ****          ** If the value is 0 at Init time this will default to 48000Hz 
  75:../../../libs/libDaisy/src/sys/../../../../libs/libDaisy/src/per/dac.h ****          ** otherwise the driver will attempt meet the target.*/
  76:../../../libs/libDaisy/src/sys/../../../../libs/libDaisy/src/per/dac.h ****         uint32_t target_samplerate;
  77:../../../libs/libDaisy/src/sys/../../../../libs/libDaisy/src/per/dac.h **** 
  78:../../../libs/libDaisy/src/sys/../../../../libs/libDaisy/src/per/dac.h ****         Channel     chn;
  79:../../../libs/libDaisy/src/sys/../../../../libs/libDaisy/src/per/dac.h ****         Mode        mode;
  80:../../../libs/libDaisy/src/sys/../../../../libs/libDaisy/src/per/dac.h ****         BitDepth    bitdepth;
  81:../../../libs/libDaisy/src/sys/../../../../libs/libDaisy/src/per/dac.h ****         BufferState buff_state;
  82:../../../libs/libDaisy/src/sys/../../../../libs/libDaisy/src/per/dac.h ****     };
  83:../../../libs/libDaisy/src/sys/../../../../libs/libDaisy/src/per/dac.h **** 
  84:../../../libs/libDaisy/src/sys/../../../../libs/libDaisy/src/per/dac.h ****     DacHandle() : pimpl_(nullptr) {}
 1129              		.loc 15 84 5 is_stmt 1 view .LVU273
 1130              		.loc 15 84 5 is_stmt 0 view .LVU274
 1131              	.LBE442:
 1132              	.LBB445:
 1133              	.LBI445:
  40:../../../libs/libDaisy/src/hid/usb.h **** 
 1134              		.loc 4 40 5 is_stmt 1 view .LVU275
  40:../../../libs/libDaisy/src/hid/usb.h **** 
 1135              		.loc 4 40 5 is_stmt 0 view .LVU276
 1136              	.LBE445:
 1137              	.LBB446:
 1138              	.LBI446:
 1139              		.file 16 "../../../libs/libDaisy/src/per/gpio.h"
   1:../../../libs/libDaisy/src/per/gpio.h **** #pragma once
   2:../../../libs/libDaisy/src/per/gpio.h **** #ifndef DSY_GPIO_H
   3:../../../libs/libDaisy/src/per/gpio.h **** #define DSY_GPIO_H
   4:../../../libs/libDaisy/src/per/gpio.h **** #include "daisy_core.h"
   5:../../../libs/libDaisy/src/per/gpio.h **** 
   6:../../../libs/libDaisy/src/per/gpio.h **** #ifdef __cplusplus
   7:../../../libs/libDaisy/src/per/gpio.h **** 
   8:../../../libs/libDaisy/src/per/gpio.h **** namespace daisy
   9:../../../libs/libDaisy/src/per/gpio.h **** {
  10:../../../libs/libDaisy/src/per/gpio.h **** /** @brief General Purpose I/O control 
  11:../../../libs/libDaisy/src/per/gpio.h ****  *  @details peripheral control over a single GPIO
  12:../../../libs/libDaisy/src/per/gpio.h ****  *  @ingroup peripheral
  13:../../../libs/libDaisy/src/per/gpio.h ****  *   
  14:../../../libs/libDaisy/src/per/gpio.h ****  *  Button Input (with internal Pullup resistor)
  15:../../../libs/libDaisy/src/per/gpio.h ****  *  @include GPIO_Input.cpp 
  16:../../../libs/libDaisy/src/per/gpio.h ****  * 
  17:../../../libs/libDaisy/src/per/gpio.h ****  *  Output Example (perfect for blinking an LED)
  18:../../../libs/libDaisy/src/per/gpio.h ****  *  @include GPIO_Output.cpp
  19:../../../libs/libDaisy/src/per/gpio.h ****  * 
  20:../../../libs/libDaisy/src/per/gpio.h **** */
  21:../../../libs/libDaisy/src/per/gpio.h **** class GPIO
  22:../../../libs/libDaisy/src/per/gpio.h **** {
ARM GAS  C:\Users\matte\AppData\Local\Temp\cczyq38t.s 			page 48


  23:../../../libs/libDaisy/src/per/gpio.h ****   public:
  24:../../../libs/libDaisy/src/per/gpio.h ****     /** @brief Mode of operation for the specified GPIO */
  25:../../../libs/libDaisy/src/per/gpio.h ****     enum class Mode
  26:../../../libs/libDaisy/src/per/gpio.h ****     {
  27:../../../libs/libDaisy/src/per/gpio.h ****         INPUT,      /**< Input for reading state of pin */
  28:../../../libs/libDaisy/src/per/gpio.h ****         OUTPUT,     /**< Output w/ push-pull configuration */
  29:../../../libs/libDaisy/src/per/gpio.h ****         OPEN_DRAIN, /**< Output w/ open-drain configuration */
  30:../../../libs/libDaisy/src/per/gpio.h ****         ANALOG,     /**< Analog for connection to ADC or DAC peripheral */
  31:../../../libs/libDaisy/src/per/gpio.h ****     };
  32:../../../libs/libDaisy/src/per/gpio.h **** 
  33:../../../libs/libDaisy/src/per/gpio.h ****     /** @brief Configures whether an internal Pull up or Pull down resistor is used. 
  34:../../../libs/libDaisy/src/per/gpio.h ****      *  
  35:../../../libs/libDaisy/src/per/gpio.h ****      * Internal Pull up/down resistors are typically 40k ohms, and will be between
  36:../../../libs/libDaisy/src/per/gpio.h ****      * 30k and 50k
  37:../../../libs/libDaisy/src/per/gpio.h ****      * 
  38:../../../libs/libDaisy/src/per/gpio.h ****      * When the Pin is configured in Analog mode, the pull up/down resistors are
  39:../../../libs/libDaisy/src/per/gpio.h ****      * disabled by hardware. 
  40:../../../libs/libDaisy/src/per/gpio.h ****      */
  41:../../../libs/libDaisy/src/per/gpio.h ****     enum class Pull
  42:../../../libs/libDaisy/src/per/gpio.h ****     {
  43:../../../libs/libDaisy/src/per/gpio.h ****         NOPULL,   /**< No pull up resistor */
  44:../../../libs/libDaisy/src/per/gpio.h ****         PULLUP,   /**< Internal pull up enabled */
  45:../../../libs/libDaisy/src/per/gpio.h ****         PULLDOWN, /**< Internal pull down enabled*/
  46:../../../libs/libDaisy/src/per/gpio.h ****     };
  47:../../../libs/libDaisy/src/per/gpio.h **** 
  48:../../../libs/libDaisy/src/per/gpio.h ****     /** @brief Output speed controls the drive strength, and slew rate of the pin */
  49:../../../libs/libDaisy/src/per/gpio.h ****     enum class Speed
  50:../../../libs/libDaisy/src/per/gpio.h ****     {
  51:../../../libs/libDaisy/src/per/gpio.h ****         LOW,
  52:../../../libs/libDaisy/src/per/gpio.h ****         MEDIUM,
  53:../../../libs/libDaisy/src/per/gpio.h ****         HIGH,
  54:../../../libs/libDaisy/src/per/gpio.h ****         VERY_HIGH,
  55:../../../libs/libDaisy/src/per/gpio.h ****     };
  56:../../../libs/libDaisy/src/per/gpio.h **** 
  57:../../../libs/libDaisy/src/per/gpio.h ****     /** @brief Configuration for a given GPIO */
  58:../../../libs/libDaisy/src/per/gpio.h ****     struct Config
  59:../../../libs/libDaisy/src/per/gpio.h ****     {
  60:../../../libs/libDaisy/src/per/gpio.h ****         Pin   pin;
  61:../../../libs/libDaisy/src/per/gpio.h ****         Mode  mode;
  62:../../../libs/libDaisy/src/per/gpio.h ****         Pull  pull;
  63:../../../libs/libDaisy/src/per/gpio.h ****         Speed speed;
  64:../../../libs/libDaisy/src/per/gpio.h **** 
  65:../../../libs/libDaisy/src/per/gpio.h ****         /** Constructor with no arguments will prepare an invalid GPIO set as
  66:../../../libs/libDaisy/src/per/gpio.h ****          *  an input, with no pullup. 
  67:../../../libs/libDaisy/src/per/gpio.h ****          */
  68:../../../libs/libDaisy/src/per/gpio.h ****         Config()
  69:../../../libs/libDaisy/src/per/gpio.h ****         : pin(), mode(Mode::INPUT), pull(Pull::NOPULL), speed(Speed::LOW)
  70:../../../libs/libDaisy/src/per/gpio.h ****         {
  71:../../../libs/libDaisy/src/per/gpio.h ****         }
  72:../../../libs/libDaisy/src/per/gpio.h ****     };
  73:../../../libs/libDaisy/src/per/gpio.h **** 
  74:../../../libs/libDaisy/src/per/gpio.h ****     GPIO() {}
 1140              		.loc 16 74 5 is_stmt 1 view .LVU277
 1141              	.LBB447:
 1142              	.LBB448:
 1143              	.LBI448:
  68:../../../libs/libDaisy/src/per/gpio.h ****         : pin(), mode(Mode::INPUT), pull(Pull::NOPULL), speed(Speed::LOW)
ARM GAS  C:\Users\matte\AppData\Local\Temp\cczyq38t.s 			page 49


 1144              		.loc 16 68 9 view .LVU278
 1145              	.LBB449:
 1146              	.LBB450:
 1147              	.LBB451:
 1148              	.LBI451:
 1149              		.loc 14 204 15 view .LVU279
 1150              		.loc 14 204 15 is_stmt 0 view .LVU280
 1151              	.LBE451:
 1152              	.LBE450:
 1153              	.LBE449:
 1154              	.LBE448:
 1155              	.LBE447:
 1156              	.LBE446:
 1157              	.LBB460:
 1158              	.LBI460:
 1159              		.loc 16 74 5 is_stmt 1 view .LVU281
 1160              	.LBB461:
 1161              	.LBB462:
 1162              	.LBI462:
  68:../../../libs/libDaisy/src/per/gpio.h ****         : pin(), mode(Mode::INPUT), pull(Pull::NOPULL), speed(Speed::LOW)
 1163              		.loc 16 68 9 view .LVU282
 1164              	.LBB463:
 1165              	.LBB464:
 1166              	.LBB465:
 1167              	.LBI465:
 1168              		.loc 14 204 15 view .LVU283
 1169              		.loc 14 204 15 is_stmt 0 view .LVU284
 1170              	.LBE465:
 1171              	.LBE464:
 1172              	.LBE463:
 1173              	.LBE462:
 1174              	.LBE461:
 1175              	.LBE460:
 1176              	.LBB474:
 1177              	.LBI474:
  96:../../../libs/libDaisy/src/sys/system.h ****     ~System() {}
 1178              		.loc 3 96 5 is_stmt 1 view .LVU285
  96:../../../libs/libDaisy/src/sys/system.h ****     ~System() {}
 1179              		.loc 3 96 5 is_stmt 0 view .LVU286
 1180              	.LBE474:
 1181              	.LBB475:
 1182              	.LBI475:
  20:../../../libs/libDaisy/src/sys/../../../../libs/libDaisy/src/dev/codec_ak4556.h ****     ~Ak4556() {}
 1183              		.loc 2 20 5 is_stmt 1 view .LVU287
 1184              	.LBB476:
 1185              	.LBI476:
 1186              		.loc 16 74 5 view .LVU288
 1187              	.LBB477:
 1188              	.LBB478:
 1189              	.LBI478:
  68:../../../libs/libDaisy/src/per/gpio.h ****         : pin(), mode(Mode::INPUT), pull(Pull::NOPULL), speed(Speed::LOW)
 1190              		.loc 16 68 9 view .LVU289
 1191              	.LBB479:
 1192              	.LBB480:
 1193              	.LBB481:
 1194              	.LBI481:
 1195              		.loc 14 204 15 view .LVU290
ARM GAS  C:\Users\matte\AppData\Local\Temp\cczyq38t.s 			page 50


 1196              		.loc 14 204 15 is_stmt 0 view .LVU291
 1197              	.LBE481:
 1198              	.LBE480:
 1199              	.LBE479:
 1200              	.LBE478:
 1201              	.LBE477:
 1202              	.LBE476:
 1203              	.LBE475:
 1204              	.LBB492:
 1205              	.LBI492:
 1206              		.file 17 "../../../libs/libDaisy/src/per/sai.h"
   1:../../../libs/libDaisy/src/per/sai.h **** #pragma once
   2:../../../libs/libDaisy/src/per/sai.h **** #ifndef DSY_SAI_H
   3:../../../libs/libDaisy/src/per/sai.h **** #define DSY_SAI_H
   4:../../../libs/libDaisy/src/per/sai.h **** 
   5:../../../libs/libDaisy/src/per/sai.h **** #include "util/hal_map.h"
   6:../../../libs/libDaisy/src/per/sai.h **** #include "daisy_core.h"
   7:../../../libs/libDaisy/src/per/sai.h **** 
   8:../../../libs/libDaisy/src/per/sai.h **** namespace daisy
   9:../../../libs/libDaisy/src/per/sai.h **** {
  10:../../../libs/libDaisy/src/per/sai.h **** /** 
  11:../../../libs/libDaisy/src/per/sai.h ****  * Support for I2S Audio Protocol with different bit-depth, samplerate options
  12:../../../libs/libDaisy/src/per/sai.h ****  * Allows for master or slave, as well as freedom of selecting direction, 
  13:../../../libs/libDaisy/src/per/sai.h ****  * and other behavior for each peripheral, and block.
  14:../../../libs/libDaisy/src/per/sai.h ****  * 
  15:../../../libs/libDaisy/src/per/sai.h ****  * DMA Transfer commands must use buffers located within non-cached memory or use cache maintenance
  16:../../../libs/libDaisy/src/per/sai.h ****  * To declare an unitialized global element in the DMA memory section:
  17:../../../libs/libDaisy/src/per/sai.h ****  *    int32_t DSY_DMA_BUFFER_SECTOR my_buffer[96];
  18:../../../libs/libDaisy/src/per/sai.h ****  *
  19:../../../libs/libDaisy/src/per/sai.h ****  * Callback functions will be called once per half of the buffer. In the above example, 
  20:../../../libs/libDaisy/src/per/sai.h ****  * the callback function would be called once for every 48 samples.
  21:../../../libs/libDaisy/src/per/sai.h ****  * 
  22:../../../libs/libDaisy/src/per/sai.h ****  * Use SAI Handle like this:
  23:../../../libs/libDaisy/src/per/sai.h ****  * 
  24:../../../libs/libDaisy/src/per/sai.h ****  *  SaiHandle::Config sai_config;
  25:../../../libs/libDaisy/src/per/sai.h ****  *  sai_config.periph          = SaiHandle::Config::Peripheral::SAI_1;
  26:../../../libs/libDaisy/src/per/sai.h ****  *  sai_config.sr              = SaiHandle::Config::SampleRate::SAI_48KHZ;
  27:../../../libs/libDaisy/src/per/sai.h ****  *  sai_config.bit_depth       = SaiHandle::Config::BitDepth::SAI_24BIT;
  28:../../../libs/libDaisy/src/per/sai.h ****  *  sai_config.a_sync          = SaiHandle::Config::Sync::MASTER;
  29:../../../libs/libDaisy/src/per/sai.h ****  *  sai_config.b_sync          = SaiHandle::Config::Sync::SLAVE;
  30:../../../libs/libDaisy/src/per/sai.h ****  *  sai_config.a_dir           = SaiHandle::Config::Direction::RECEIVE;
  31:../../../libs/libDaisy/src/per/sai.h ****  *  sai_config.b_dir           = SaiHandle::Config::Direction::TRANSMIT;
  32:../../../libs/libDaisy/src/per/sai.h ****  *  sai_config.pin_config.fs   = {DSY_GPIOE, 4};
  33:../../../libs/libDaisy/src/per/sai.h ****  *  sai_config.pin_config.mclk = {DSY_GPIOE, 2};
  34:../../../libs/libDaisy/src/per/sai.h ****  *  sai_config.pin_config.sck  = {DSY_GPIOE, 5};
  35:../../../libs/libDaisy/src/per/sai.h ****  *  sai_config.pin_config.sa   = {DSY_GPIOE, 6};
  36:../../../libs/libDaisy/src/per/sai.h ****  *  sai_config.pin_config.sb   = {DSY_GPIOE, 3};
  37:../../../libs/libDaisy/src/per/sai.h ****  *  // Then Initialize
  38:../../../libs/libDaisy/src/per/sai.h ****  *  SaiHandle sai;
  39:../../../libs/libDaisy/src/per/sai.h ****  *  sai.Init(sai_config);
  40:../../../libs/libDaisy/src/per/sai.h ****  *  // Now you can use it:
  41:../../../libs/libDaisy/src/per/sai.h ****  *  sai.StartDma(. . .);
  42:../../../libs/libDaisy/src/per/sai.h ****  */
  43:../../../libs/libDaisy/src/per/sai.h **** class SaiHandle
  44:../../../libs/libDaisy/src/per/sai.h **** {
  45:../../../libs/libDaisy/src/per/sai.h ****   public:
  46:../../../libs/libDaisy/src/per/sai.h ****     /** Contains settings for initialising an SAI Interface */
ARM GAS  C:\Users\matte\AppData\Local\Temp\cczyq38t.s 			page 51


  47:../../../libs/libDaisy/src/per/sai.h ****     struct Config
  48:../../../libs/libDaisy/src/per/sai.h ****     {
  49:../../../libs/libDaisy/src/per/sai.h ****         /** Specifies the internal peripheral to use (mapped to different hardware pins) */
  50:../../../libs/libDaisy/src/per/sai.h ****         enum class Peripheral
  51:../../../libs/libDaisy/src/per/sai.h ****         {
  52:../../../libs/libDaisy/src/per/sai.h ****             SAI_1,
  53:../../../libs/libDaisy/src/per/sai.h ****             SAI_2,
  54:../../../libs/libDaisy/src/per/sai.h ****         };
  55:../../../libs/libDaisy/src/per/sai.h **** 
  56:../../../libs/libDaisy/src/per/sai.h ****         /** Rate at which samples will be streaming to/from the device. */
  57:../../../libs/libDaisy/src/per/sai.h ****         enum class SampleRate
  58:../../../libs/libDaisy/src/per/sai.h ****         {
  59:../../../libs/libDaisy/src/per/sai.h ****             SAI_8KHZ,
  60:../../../libs/libDaisy/src/per/sai.h ****             SAI_16KHZ,
  61:../../../libs/libDaisy/src/per/sai.h ****             SAI_32KHZ,
  62:../../../libs/libDaisy/src/per/sai.h ****             SAI_48KHZ,
  63:../../../libs/libDaisy/src/per/sai.h ****             SAI_96KHZ,
  64:../../../libs/libDaisy/src/per/sai.h ****         };
  65:../../../libs/libDaisy/src/per/sai.h **** 
  66:../../../libs/libDaisy/src/per/sai.h ****         /** Bit Depth that the hardware expects to be transferred to/from the device. */
  67:../../../libs/libDaisy/src/per/sai.h ****         enum class BitDepth
  68:../../../libs/libDaisy/src/per/sai.h ****         {
  69:../../../libs/libDaisy/src/per/sai.h ****             SAI_16BIT,
  70:../../../libs/libDaisy/src/per/sai.h ****             SAI_24BIT,
  71:../../../libs/libDaisy/src/per/sai.h ****             SAI_32BIT,
  72:../../../libs/libDaisy/src/per/sai.h ****         };
  73:../../../libs/libDaisy/src/per/sai.h **** 
  74:../../../libs/libDaisy/src/per/sai.h ****         /** Specifies whether a particular block is the master or the slave 
  75:../../../libs/libDaisy/src/per/sai.h ****          ** If both are set to slave, no MCLK signal will be used, and it is
  76:../../../libs/libDaisy/src/per/sai.h ****          ** expected that the codec will have its own xtal.
  77:../../../libs/libDaisy/src/per/sai.h ****          */
  78:../../../libs/libDaisy/src/per/sai.h ****         enum class Sync
  79:../../../libs/libDaisy/src/per/sai.h ****         {
  80:../../../libs/libDaisy/src/per/sai.h ****             MASTER,
  81:../../../libs/libDaisy/src/per/sai.h ****             SLAVE,
  82:../../../libs/libDaisy/src/per/sai.h ****         };
  83:../../../libs/libDaisy/src/per/sai.h **** 
  84:../../../libs/libDaisy/src/per/sai.h ****         /** Specifies the direction for each peripheral block. */
  85:../../../libs/libDaisy/src/per/sai.h ****         enum class Direction
  86:../../../libs/libDaisy/src/per/sai.h ****         {
  87:../../../libs/libDaisy/src/per/sai.h ****             TRANSMIT,
  88:../../../libs/libDaisy/src/per/sai.h ****             RECEIVE,
  89:../../../libs/libDaisy/src/per/sai.h ****         };
  90:../../../libs/libDaisy/src/per/sai.h **** 
  91:../../../libs/libDaisy/src/per/sai.h ****         Peripheral periph;
  92:../../../libs/libDaisy/src/per/sai.h ****         struct
  93:../../../libs/libDaisy/src/per/sai.h ****         {
  94:../../../libs/libDaisy/src/per/sai.h ****             Pin mclk, fs, sck, sa, sb;
  95:../../../libs/libDaisy/src/per/sai.h ****         } pin_config;
  96:../../../libs/libDaisy/src/per/sai.h ****         SampleRate sr;
  97:../../../libs/libDaisy/src/per/sai.h ****         BitDepth   bit_depth;
  98:../../../libs/libDaisy/src/per/sai.h ****         Sync       a_sync, b_sync;
  99:../../../libs/libDaisy/src/per/sai.h ****         Direction  a_dir, b_dir;
 100:../../../libs/libDaisy/src/per/sai.h ****     };
 101:../../../libs/libDaisy/src/per/sai.h **** 
 102:../../../libs/libDaisy/src/per/sai.h ****     /** Return values for SAI functions */
 103:../../../libs/libDaisy/src/per/sai.h ****     enum class Result
ARM GAS  C:\Users\matte\AppData\Local\Temp\cczyq38t.s 			page 52


 104:../../../libs/libDaisy/src/per/sai.h ****     {
 105:../../../libs/libDaisy/src/per/sai.h ****         OK,
 106:../../../libs/libDaisy/src/per/sai.h ****         ERR,
 107:../../../libs/libDaisy/src/per/sai.h ****     };
 108:../../../libs/libDaisy/src/per/sai.h **** 
 109:../../../libs/libDaisy/src/per/sai.h ****     SaiHandle() : pimpl_(nullptr) {}
 1207              		.loc 17 109 5 is_stmt 1 view .LVU292
 1208              	.LBE492:
 1209              	.LBE426:
 1210              	.LBE425:
 1211              	.LBE424:
 1212              	.LBE423:
 1213              		.loc 9 153 1 is_stmt 0 view .LVU293
 1214 0000 10B5     		push	{r4, lr}
 1215              		.cfi_def_cfa_offset 8
 1216              		.cfi_offset 4, -8
 1217              		.cfi_offset 14, -4
 1218              	.LBB521:
 1219              	.LBB519:
 1220              	.LBB508:
 1221              	.LBB505:
 1222              	.LBB495:
 1223              	.LBB428:
 1224              	.LBB429:
 1225              		.loc 13 167 34 view .LVU294
 1226 0002 1548     		ldr	r0, .L64
 1227 0004 0024     		movs	r4, #0
 1228              	.LBE429:
 1229              	.LBE428:
 1230              	.LBE495:
  21:../../../libs/libDaisy/src/sys/../../../../libs/libDaisy/src/daisy_seed.h ****     ~DaisySeed() {}
 1231              		.loc 1 21 17 view .LVU295
 1232 0006 4FF60B73 		movw	r3, #65291
 1233 000a 6FF0F411 		mvn	r1, #15991028
 1234              	.LBE505:
 1235              	.LBE508:
  13:src/main.cpp  **** DaisySeed hw;
 1236              		.loc 9 13 11 view .LVU296
 1237 000e 134A     		ldr	r2, .L64+4
 1238              	.LBB509:
 1239              	.LBB506:
 1240              	.LBB496:
 1241              	.LBB439:
 1242              	.LBB440:
  87:../../../libs/libDaisy/src/sys/../../../../libs/libDaisy/src/hid/audio.h ****     ~AudioHandle() {}
 1243              		.loc 6 87 35 view .LVU297
 1244 0010 4461     		str	r4, [r0, #20]
 1245              	.LBE440:
 1246              	.LBE439:
 1247              	.LBE496:
 1248              	.LBB497:
 1249              	.LBB443:
 1250              	.LBB444:
 1251              		.loc 15 84 33 view .LVU298
 1252 0012 0462     		str	r4, [r0, #32]
 1253              	.LBE444:
 1254              	.LBE443:
ARM GAS  C:\Users\matte\AppData\Local\Temp\cczyq38t.s 			page 53


 1255              	.LBE497:
  21:../../../libs/libDaisy/src/sys/../../../../libs/libDaisy/src/daisy_seed.h ****     ~DaisySeed() {}
 1256              		.loc 1 21 17 view .LVU299
 1257 0014 8365     		str	r3, [r0, #88]
 1258              	.LBB498:
 1259              	.LBB490:
 1260              	.LBB488:
 1261              	.LBB486:
 1262              	.LBB484:
 1263              	.LBB482:
  69:../../../libs/libDaisy/src/per/gpio.h ****         {
 1264              		.loc 16 69 73 view .LVU300
 1265 0016 4466     		str	r4, [r0, #100]
 1266              	.LBE482:
 1267              	.LBE484:
 1268              	.LBE486:
 1269              	.LBE488:
 1270              	.LBE490:
 1271              	.LBE498:
 1272              	.LBB499:
 1273              	.LBB493:
 1274              	.LBB494:
 1275              		.loc 17 109 33 view .LVU301
 1276 0018 0467     		str	r4, [r0, #112]
 1277              	.LVL60:
 1278              		.loc 17 109 33 view .LVU302
 1279              	.LBE494:
 1280              	.LBE493:
 1281              	.LBE499:
  21:../../../libs/libDaisy/src/sys/../../../../libs/libDaisy/src/daisy_seed.h ****     ~DaisySeed() {}
 1282              		.loc 1 21 17 view .LVU303
 1283 001a C0E90041 		strd	r4, r1, [r0]
 1284              	.LBB500:
 1285              	.LBB458:
 1286              	.LBB456:
 1287              	.LBB454:
 1288              	.LBB452:
  69:../../../libs/libDaisy/src/per/gpio.h ****         {
 1289              		.loc 16 69 73 view .LVU304
 1290 001e C0E90A34 		strd	r3, r4, [r0, #40]
 1291              	.LBE452:
 1292              	.LBE454:
 1293              	.LBE456:
 1294              	.LBE458:
 1295              	.LBE500:
 1296              	.LBB501:
 1297              	.LBB472:
 1298              	.LBB470:
 1299              	.LBB468:
 1300              	.LBB466:
 1301 0022 C0E90F34 		strd	r3, r4, [r0, #60]
 1302              	.LBE466:
 1303              	.LBE468:
 1304              	.LBE470:
 1305              	.LBE472:
 1306              	.LBE501:
  21:../../../libs/libDaisy/src/sys/../../../../libs/libDaisy/src/daisy_seed.h ****     ~DaisySeed() {}
ARM GAS  C:\Users\matte\AppData\Local\Temp\cczyq38t.s 			page 54


 1307              		.loc 1 21 17 view .LVU305
 1308 0026 C0E90211 		strd	r1, r1, [r0, #8]
 1309              	.LBB502:
 1310              	.LBB459:
 1311              	.LBB457:
 1312              	.LBB455:
 1313              	.LBB453:
  69:../../../libs/libDaisy/src/per/gpio.h ****         {
 1314              		.loc 16 69 73 view .LVU306
 1315 002a C0E90C44 		strd	r4, r4, [r0, #48]
 1316              	.LBE453:
 1317              	.LBE455:
 1318              	.LBE457:
 1319              	.LBE459:
 1320              	.LBE502:
 1321              	.LBE506:
 1322              	.LBE509:
  13:src/main.cpp  **** DaisySeed hw;
 1323              		.loc 9 13 11 view .LVU307
 1324 002e 0C49     		ldr	r1, .L64+8
 1325              	.LBB510:
 1326              	.LBB507:
 1327              	.LBB503:
 1328              	.LBB473:
 1329              	.LBB471:
 1330              	.LBB469:
 1331              	.LBB467:
  69:../../../libs/libDaisy/src/per/gpio.h ****         {
 1332              		.loc 16 69 73 view .LVU308
 1333 0030 C0E91144 		strd	r4, r4, [r0, #68]
 1334              	.LBE467:
 1335              	.LBE469:
 1336              	.LBE471:
 1337              	.LBE473:
 1338              	.LBE503:
 1339              	.LBB504:
 1340              	.LBB491:
 1341              	.LBB489:
 1342              	.LBB487:
 1343              	.LBB485:
 1344              	.LBB483:
 1345 0034 C0E91744 		strd	r4, r4, [r0, #92]
 1346              	.LBE483:
 1347              	.LBE485:
 1348              	.LBE487:
 1349              	.LBE489:
 1350              	.LBE491:
 1351              	.LBE504:
 1352              	.LBE507:
 1353              	.LBE510:
  13:src/main.cpp  **** DaisySeed hw;
 1354              		.loc 9 13 11 view .LVU309
 1355 0038 FFF7FEFF 		bl	__aeabi_atexit
 1356              	.LVL61:
 1357              	.LBB511:
 1358              	.LBI511:
   8:../../Classes/sigChain/sigChain_handler.hpp **** 
ARM GAS  C:\Users\matte\AppData\Local\Temp\cczyq38t.s 			page 55


 1359              		.loc 10 8 7 is_stmt 1 view .LVU310
 1360              	.LBB512:
 1361 003c 094B     		ldr	r3, .L64+12
 1362              	.LBE512:
 1363              	.LBE511:
  22:src/main.cpp  **** daisysp::Oscillator lfo1;
 1364              		.loc 9 22 21 is_stmt 0 view .LVU311
 1365 003e 0A49     		ldr	r1, .L64+16
 1366 0040 064A     		ldr	r2, .L64+4
 1367              	.LBB514:
 1368              	.LBB513:
   8:../../Classes/sigChain/sigChain_handler.hpp **** 
 1369              		.loc 10 8 7 view .LVU312
 1370 0042 1C62     		str	r4, [r3, #32]
 1371              	.LVL62:
   8:../../Classes/sigChain/sigChain_handler.hpp **** 
 1372              		.loc 10 8 7 view .LVU313
 1373              	.LBE513:
 1374              	.LBE514:
 1375              	.LBB515:
 1376              	.LBI515:
  23:../../../libs/DaisySP/Source/Synthesis/oscillator.h ****     ~Oscillator() {}
 1377              		.loc 7 23 5 is_stmt 1 view .LVU314
  23:../../../libs/DaisySP/Source/Synthesis/oscillator.h ****     ~Oscillator() {}
 1378              		.loc 7 23 5 is_stmt 0 view .LVU315
 1379              	.LBE515:
  22:src/main.cpp  **** daisysp::Oscillator lfo1;
 1380              		.loc 9 22 21 view .LVU316
 1381 0044 0948     		ldr	r0, .L64+20
 1382 0046 FFF7FEFF 		bl	__aeabi_atexit
 1383              	.LVL63:
 1384              	.LBB516:
 1385              	.LBI516:
  32:../../../libs/DaisySP/Source/Effects/tremolo.h ****     ~Tremolo() {}
 1386              		.loc 8 32 5 is_stmt 1 view .LVU317
 1387              	.LBB517:
 1388              	.LBB518:
 1389              	.LBI518:
  23:../../../libs/DaisySP/Source/Synthesis/oscillator.h ****     ~Oscillator() {}
 1390              		.loc 7 23 5 view .LVU318
  23:../../../libs/DaisySP/Source/Synthesis/oscillator.h ****     ~Oscillator() {}
 1391              		.loc 7 23 5 is_stmt 0 view .LVU319
 1392              	.LBE518:
 1393              	.LBE517:
 1394              	.LBE516:
  25:src/main.cpp  **** daisysp::Tremolo trem1;
 1395              		.loc 9 25 18 view .LVU320
 1396 004a 044A     		ldr	r2, .L64+4
 1397 004c 0849     		ldr	r1, .L64+24
 1398 004e 0948     		ldr	r0, .L64+28
 1399              	.LBE519:
 1400              	.LBE521:
 1401              		.loc 9 153 1 view .LVU321
 1402 0050 BDE81040 		pop	{r4, lr}
 1403              		.cfi_restore 14
 1404              		.cfi_restore 4
 1405              		.cfi_def_cfa_offset 0
ARM GAS  C:\Users\matte\AppData\Local\Temp\cczyq38t.s 			page 56


 1406              	.LBB522:
 1407              	.LBB520:
  25:src/main.cpp  **** daisysp::Tremolo trem1;
 1408              		.loc 9 25 18 view .LVU322
 1409 0054 FFF7FEBF 		b	__aeabi_atexit
 1410              	.LVL64:
 1411              	.L65:
 1412              		.align	2
 1413              	.L64:
 1414 0058 00000000 		.word	.LANCHOR2
 1415 005c 00000000 		.word	__dso_handle
 1416 0060 00000000 		.word	_ZN5daisy9DaisySeedD1Ev
 1417 0064 00000000 		.word	.LANCHOR0
 1418 0068 00000000 		.word	_ZN7daisysp10OscillatorD1Ev
 1419 006c 00000000 		.word	.LANCHOR3
 1420 0070 00000000 		.word	_ZN7daisysp7TremoloD1Ev
 1421 0074 00000000 		.word	.LANCHOR4
 1422              	.LBE520:
 1423              	.LBE522:
 1424              		.cfi_endproc
 1425              	.LFE5847:
 1427              		.section	.init_array,"aw",%init_array
 1428              		.align	2
 1429 0000 00000000 		.word	_GLOBAL__sub_I_hw(target1)
 1430              		.weak	_ZTV13EffectWrapperIN7daisysp10OscillatorEfffvE
 1431              		.section	.rodata._ZTV13EffectWrapperIN7daisysp10OscillatorEfffvE,"aG",%progbits,_ZTV13EffectWrappe
 1432              		.align	2
 1435              	_ZTV13EffectWrapperIN7daisysp10OscillatorEfffvE:
 1436 0000 00000000 		.word	0
 1437 0004 00000000 		.word	0
 1438 0008 00000000 		.word	_ZN13EffectWrapperIN7daisysp10OscillatorEfffvE7ProcessEf
 1439              		.weak	_ZTV13EffectWrapperIN7daisysp7TremoloEfffvE
 1440              		.section	.rodata._ZTV13EffectWrapperIN7daisysp7TremoloEfffvE,"aG",%progbits,_ZTV13EffectWrapperIN7
 1441              		.align	2
 1444              	_ZTV13EffectWrapperIN7daisysp7TremoloEfffvE:
 1445 0000 00000000 		.word	0
 1446 0004 00000000 		.word	0
 1447 0008 00000000 		.word	_ZN13EffectWrapperIN7daisysp7TremoloEfffvE7ProcessEf
 1448              		.global	trem1
 1449              		.global	lfo1
 1450              		.global	chain1
 1451              		.global	outSample
 1452              		.global	hw
 1453              		.section	.bss.chain1,"aw",%nobits
 1454              		.align	2
 1455              		.set	.LANCHOR0,. + 0
 1458              	chain1:
 1459 0000 00000000 		.space	36
 1459      00000000 
 1459      00000000 
 1459      00000000 
 1459      00000000 
 1460              		.section	.bss.hw,"aw",%nobits
 1461              		.align	2
 1462              		.set	.LANCHOR2,. + 0
 1465              	hw:
 1466 0000 00000000 		.space	116
ARM GAS  C:\Users\matte\AppData\Local\Temp\cczyq38t.s 			page 57


 1466      00000000 
 1466      00000000 
 1466      00000000 
 1466      00000000 
 1467              		.section	.bss.lfo1,"aw",%nobits
 1468              		.align	2
 1469              		.set	.LANCHOR3,. + 0
 1472              	lfo1:
 1473 0000 00000000 		.space	44
 1473      00000000 
 1473      00000000 
 1473      00000000 
 1473      00000000 
 1474              		.section	.bss.outSample,"aw",%nobits
 1475              		.align	2
 1476              		.set	.LANCHOR1,. + 0
 1479              	outSample:
 1480 0000 00000000 		.space	4
 1481              		.section	.bss.trem1,"aw",%nobits
 1482              		.align	2
 1483              		.set	.LANCHOR4,. + 0
 1486              	trem1:
 1487 0000 00000000 		.space	52
 1487      00000000 
 1487      00000000 
 1487      00000000 
 1487      00000000 
 1488              		.text
 1489              	.Letext0:
 1490              		.file 18 "c:\\program files\\daisytoolchain\\arm-none-eabi\\include\\machine\\_default_types.h"
 1491              		.file 19 "c:\\program files\\daisytoolchain\\arm-none-eabi\\include\\sys\\_stdint.h"
 1492              		.file 20 "c:\\program files\\daisytoolchain\\arm-none-eabi\\include\\stdint.h"
 1493              		.file 21 "c:\\program files\\daisytoolchain\\lib\\gcc\\arm-none-eabi\\10.2.1\\include\\stddef.h"
 1494              		.file 22 "c:\\program files\\daisytoolchain\\arm-none-eabi\\include\\c++\\10.2.1\\cmath"
 1495              		.file 23 "c:\\program files\\daisytoolchain\\arm-none-eabi\\include\\c++\\10.2.1\\bits\\std_abs.h"
 1496              		.file 24 "c:\\program files\\daisytoolchain\\arm-none-eabi\\include\\c++\\10.2.1\\cstdlib"
 1497              		.file 25 "c:\\program files\\daisytoolchain\\arm-none-eabi\\include\\c++\\10.2.1\\cstdint"
 1498              		.file 26 "c:\\program files\\daisytoolchain\\arm-none-eabi\\include\\c++\\10.2.1\\type_traits"
 1499              		.file 27 "c:\\program files\\daisytoolchain\\arm-none-eabi\\include\\c++\\10.2.1\\debug\\debug.h"
 1500              		.file 28 "c:\\program files\\daisytoolchain\\arm-none-eabi\\include\\c++\\10.2.1\\arm-none-eabi\\t
 1501              		.file 29 "c:\\program files\\daisytoolchain\\arm-none-eabi\\include\\c++\\10.2.1\\bits\\algorithmf
 1502              		.file 30 "c:\\program files\\daisytoolchain\\arm-none-eabi\\include\\c++\\10.2.1\\bits\\stl_pair.h
 1503              		.file 31 "c:\\program files\\daisytoolchain\\arm-none-eabi\\include\\c++\\10.2.1\\bits\\exception_
 1504              		.file 32 "c:\\program files\\daisytoolchain\\arm-none-eabi\\include\\c++\\10.2.1\\bits\\uses_alloc
 1505              		.file 33 "c:\\program files\\daisytoolchain\\arm-none-eabi\\include\\c++\\10.2.1\\tuple"
 1506              		.file 34 "c:\\program files\\daisytoolchain\\arm-none-eabi\\include\\c++\\10.2.1\\functional"
 1507              		.file 35 "c:\\program files\\daisytoolchain\\arm-none-eabi\\include\\c++\\10.2.1\\cstdarg"
 1508              		.file 36 "c:\\program files\\daisytoolchain\\arm-none-eabi\\include\\c++\\10.2.1\\cstdio"
 1509              		.file 37 "c:\\program files\\daisytoolchain\\arm-none-eabi\\include\\c++\\10.2.1\\cstring"
 1510              		.file 38 "c:\\program files\\daisytoolchain\\arm-none-eabi\\include\\c++\\10.2.1\\cstddef"
 1511              		.file 39 "c:\\program files\\daisytoolchain\\arm-none-eabi\\include\\c++\\10.2.1\\cwchar"
 1512              		.file 40 "c:\\program files\\daisytoolchain\\arm-none-eabi\\include\\c++\\10.2.1\\clocale"
 1513              		.file 41 "c:\\program files\\daisytoolchain\\arm-none-eabi\\include\\c++\\10.2.1\\bits\\basic_stri
 1514              		.file 42 "c:\\program files\\daisytoolchain\\arm-none-eabi\\include\\c++\\10.2.1\\bits\\stl_tempbu
 1515              		.file 43 "c:\\program files\\daisytoolchain\\arm-none-eabi\\include\\c++\\10.2.1\\bits\\predefined
 1516              		.file 44 "c:\\program files\\daisytoolchain\\arm-none-eabi\\include\\sys\\_types.h"
 1517              		.file 45 "c:\\program files\\daisytoolchain\\arm-none-eabi\\include\\sys\\reent.h"
ARM GAS  C:\Users\matte\AppData\Local\Temp\cczyq38t.s 			page 58


 1518              		.file 46 "c:\\program files\\daisytoolchain\\arm-none-eabi\\include\\sys\\lock.h"
 1519              		.file 47 "c:\\program files\\daisytoolchain\\arm-none-eabi\\include\\math.h"
 1520              		.file 48 "c:\\program files\\daisytoolchain\\arm-none-eabi\\include\\stdlib.h"
 1521              		.file 49 "c:\\program files\\daisytoolchain\\arm-none-eabi\\include\\c++\\10.2.1\\math.h"
 1522              		.file 50 "c:\\program files\\daisytoolchain\\arm-none-eabi\\include\\c++\\10.2.1\\stdlib.h"
 1523              		.file 51 "../../../libs/libDaisy/src/per/tim.h"
 1524              		.file 52 "../../../libs/libDaisy/src/sys/../../../../libs/libDaisy/src/dev/max11300.h"
 1525              		.file 53 "../../../libs/libDaisy/src/sys/../../../../libs/libDaisy/src/dev/sr_595.h"
 1526              		.file 54 "../../../libs/libDaisy/src/util/wav_format.h"
 1527              		.file 55 "../../../libs/libDaisy/src/sys/../../../../libs/libDaisy/src/dev/sdram.h"
 1528              		.file 56 "c:\\program files\\daisytoolchain\\lib\\gcc\\arm-none-eabi\\10.2.1\\include\\stdarg.h"
 1529              		.file 57 "c:\\program files\\daisytoolchain\\arm-none-eabi\\include\\stdio.h"
 1530              		.file 58 "c:\\program files\\daisytoolchain\\arm-none-eabi\\include\\string.h"
 1531              		.file 59 "../../../libs/libDaisy/Middlewares/Third_Party/FatFs/src/integer.h"
 1532              		.file 60 "../../../libs/libDaisy/Middlewares/Third_Party/FatFs/src/ff.h"
 1533              		.file 61 "../../../libs/DaisySP/Source/Control/adenv.h"
 1534              		.file 62 "../../../libs/DaisySP/Source/Utility/dsp.h"
 1535              		.file 63 "c:\\program files\\daisytoolchain\\arm-none-eabi\\include\\wchar.h"
 1536              		.file 64 "c:\\program files\\daisytoolchain\\arm-none-eabi\\include\\locale.h"
 1537              		.file 65 "<built-in>"
ARM GAS  C:\Users\matte\AppData\Local\Temp\cczyq38t.s 			page 59

